ccopy_reg
_reconstructor
p0
(csave_restore_layout.save_restore_layout
LayoutData
p1
c__builtin__
tuple
p2
(S'(kicad_pcb (version 20171130) (host pcbnew "(5.1.0)-1")\n\n  (general\n    (thickness 1.6)\n    (drawings 0)\n    (tracks 70)\n    (zones 0)\n    (modules 9)\n    (nets 11)\n  )\n\n  (page A4)\n  (layers\n    (0 F.Cu signal)\n    (31 B.Cu signal)\n    (32 B.Adhes user)\n    (33 F.Adhes user)\n    (34 B.Paste user)\n    (35 F.Paste user)\n    (36 B.SilkS user)\n    (37 F.SilkS user)\n    (38 B.Mask user)\n    (39 F.Mask user)\n    (40 Dwgs.User user)\n    (41 Cmts.User user)\n    (42 Eco1.User user)\n    (43 Eco2.User user)\n    (44 Edge.Cuts user)\n    (45 Margin user)\n    (46 B.CrtYd user hide)\n    (47 F.CrtYd user hide)\n    (48 B.Fab user hide)\n    (49 F.Fab user hide)\n  )\n\n  (setup\n    (last_trace_width 0.16)\n    (user_trace_width 0.16)\n    (user_trace_width 0.25)\n    (user_trace_width 0.5)\n    (user_trace_width 1)\n    (trace_clearance 0.16)\n    (zone_clearance 0.254)\n    (zone_45_only no)\n    (trace_min 0.16)\n    (via_size 0.8)\n    (via_drill 0.4)\n    (via_min_size 0.4)\n    (via_min_drill 0.3)\n    (user_via 0.8 0.4)\n    (user_via 1.2 0.8)\n    (uvia_size 0.3)\n    (uvia_drill 0.1)\n    (uvias_allowed no)\n    (uvia_min_size 0.2)\n    (uvia_min_drill 0.1)\n    (edge_width 0.05)\n    (segment_width 0.2)\n    (pcb_text_width 0.3)\n    (pcb_text_size 1.5 1.5)\n    (mod_edge_width 0.12)\n    (mod_text_size 1 1)\n    (mod_text_width 0.15)\n    (pad_size 1.524 1.524)\n    (pad_drill 0.762)\n    (pad_to_mask_clearance 0.051)\n    (solder_mask_min_width 0.25)\n    (aux_axis_origin 0 0)\n    (visible_elements 7FFFFFFF)\n    (pcbplotparams\n      (layerselection 0x010fc_ffffffff)\n      (usegerberextensions false)\n      (usegerberattributes false)\n      (usegerberadvancedattributes false)\n      (creategerberjobfile false)\n      (excludeedgelayer true)\n      (linewidth 0.100000)\n      (plotframeref false)\n      (viasonmask false)\n      (mode 1)\n      (useauxorigin false)\n      (hpglpennumber 1)\n      (hpglpenspeed 20)\n      (hpglpendiameter 15.000000)\n      (psnegative false)\n      (psa4output false)\n      (plotreference true)\n      (plotvalue true)\n      (plotinvisibletext false)\n      (padsonsilk false)\n      (subtractmaskfromsilk false)\n      (outputformat 1)\n      (mirror false)\n      (drillshape 1)\n      (scaleselection 1)\n      (outputdirectory ""))\n  )\n\n  (net 0 "")\n  (net 1 v3v3)\n  (net 2 gnd)\n  (net 3 can.can_pwr)\n  (net 4 can.can_gnd)\n  (net 5 can.can.canh)\n  (net 6 can.can.canl)\n  (net 7 can.reg.pwr_in)\n  (net 8 can.transceiver.can_pwr)\n  (net 9 can.controller.rxd)\n  (net 10 mcu.can_0.txd)\n\n  (net_class Default "This is the default net class."\n    (clearance 0.16)\n    (trace_width 0.16)\n    (via_dia 0.8)\n    (via_drill 0.4)\n    (uvia_dia 0.3)\n    (uvia_drill 0.1)\n    (add_net can.can.canh)\n    (add_net can.can.canl)\n    (add_net can.can_gnd)\n    (add_net can.can_pwr)\n    (add_net can.controller.rxd)\n    (add_net can.reg.pwr_in)\n    (add_net can.transceiver.can_pwr)\n    (add_net gnd)\n    (add_net light_0.conn.out_1)\n    (add_net light_0.drv_0.drv.1)\n    (add_net light_0.drv_1.drv.1)\n    (add_net light_1.drv_0.drv.1)\n    (add_net light_2.conn.3)\n    (add_net light_2.conn.out_0)\n    (add_net light_2.drv_1.pull.2)\n    (add_net light_3.control_0)\n    (add_net light_3.control_1)\n    (add_net light_3.drv_0.drv.1)\n    (add_net light_3.drv_1.output)\n    (add_net light_3.drv_1.pre.drain)\n    (add_net light_4.conn.2)\n    (add_net light_4.drv_0.pull.b)\n    (add_net light_4.drv_1.pull.b)\n    (add_net light_5.conn.3)\n    (add_net light_5.conn.out_0)\n    (add_net light_5.drv_0.pull.2)\n    (add_net light_5.drv_1.pull.2)\n    (add_net mcu.adc_3)\n    (add_net mcu.can_0.txd)\n    (add_net mcu.digital_11)\n    (add_net mcu.digital_13)\n    (add_net mcu.digital_17)\n    (add_net mcu.digital_19)\n    (add_net mcu.digital_2)\n    (add_net mcu.digital_5)\n    (add_net mcu.digital_8)\n    (add_net mcu.xtal.xtal_out)\n    (add_net pwr.vbst_cap.pos)\n    (add_net rgb1.green)\n    (add_net rgb1.green_res.a)\n    (add_net rgb2.blue_res.1)\n    (add_net rgb2.green)\n    (add_net rgb2.green_res.1)\n    (add_net rgb2.red_res.a)\n    (add_net v3v3)\n  )\n\n  (module Capacitor_SMD:C_0603_1608Metric (layer B.Cu) (tedit 5B301BBE) (tstamp 5D6EB7FE)\n    (at 165 140 90)\n    (descr "Capacitor SMD 0603 (1608 Metric), square (rectangular) end terminal, IPC_7351 nominal, (Body size source: http://www.tortai-tech.com/upload/download/2011102023233369053.pdf), generated with kicad-footprint-generator")\n    (tags capacitor)\n    (path /can/reg/in_cap)\n    (attr smd)\n    (fp_text reference can.reg.in_cap (at 0 -1 90) (layer B.SilkS)\n      (effects (font (size 0.5 0.5) (thickness 0.08)) (justify mirror))\n    )\n    (fp_text value "1\xc2\xb5F, 25V, CL10A105KA8NNNC (C=(8.8e-07, 1.32e-06) F, V=(7.0, 14.0) V)" (at 0 -1.43 90) (layer B.Fab)\n      (effects (font (size 0.5 0.5) (thickness 0.08)) (justify mirror))\n    )\n    (fp_line (start -0.8 -0.4) (end -0.8 0.4) (layer B.Fab) (width 0.1))\n    (fp_line (start -0.8 0.4) (end 0.8 0.4) (layer B.Fab) (width 0.1))\n    (fp_line (start 0.8 0.4) (end 0.8 -0.4) (layer B.Fab) (width 0.1))\n    (fp_line (start 0.8 -0.4) (end -0.8 -0.4) (layer B.Fab) (width 0.1))\n    (fp_line (start -0.162779 0.51) (end 0.162779 0.51) (layer B.SilkS) (width 0.12))\n    (fp_line (start -0.162779 -0.51) (end 0.162779 -0.51) (layer B.SilkS) (width 0.12))\n    (fp_line (start -1.48 -0.73) (end -1.48 0.73) (layer B.CrtYd) (width 0.05))\n    (fp_line (start -1.48 0.73) (end 1.48 0.73) (layer B.CrtYd) (width 0.05))\n    (fp_line (start 1.48 0.73) (end 1.48 -0.73) (layer B.CrtYd) (width 0.05))\n    (fp_line (start 1.48 -0.73) (end -1.48 -0.73) (layer B.CrtYd) (width 0.05))\n    (fp_text user %R (at 0 0 90) (layer B.Fab)\n      (effects (font (size 0.5 0.5) (thickness 0.08)) (justify mirror))\n    )\n    (pad 1 smd roundrect (at -0.7875 0 90) (size 0.875 0.95) (layers B.Cu B.Paste B.Mask) (roundrect_rratio 0.25)\n      (net 7 can.reg.pwr_in))\n    (pad 2 smd roundrect (at 0.7875 0 90) (size 0.875 0.95) (layers B.Cu B.Paste B.Mask) (roundrect_rratio 0.25)\n      (net 4 can.can_gnd))\n    (model ${KISYS3DMOD}/Capacitor_SMD.3dshapes/C_0603_1608Metric.wrl\n      (at (xyz 0 0 0))\n      (scale (xyz 1 1 1))\n      (rotate (xyz 0 0 0))\n    )\n  )\n\n  (module Capacitor_SMD:C_0603_1608Metric (layer B.Cu) (tedit 5B301BBE) (tstamp 5D6EB82E)\n    (at 165 122 180)\n    (descr "Capacitor SMD 0603 (1608 Metric), square (rectangular) end terminal, IPC_7351 nominal, (Body size source: http://www.tortai-tech.com/upload/download/2011102023233369053.pdf), generated with kicad-footprint-generator")\n    (tags capacitor)\n    (path /can/transceiver/logic_cap)\n    (attr smd)\n    (fp_text reference can.transceiver.logic_cap (at 0 -1 180) (layer B.SilkS)\n      (effects (font (size 0.5 0.5) (thickness 0.08)) (justify mirror))\n    )\n    (fp_text value "0.1\xc2\xb5F, 50V, CL10B104KB8NNNC (C=(8e-08, 1.2e-07) F, V=(3.135, 3.465) V)" (at 0 -1.43 180) (layer B.Fab)\n      (effects (font (size 0.5 0.5) (thickness 0.08)) (justify mirror))\n    )\n    (fp_text user %R (at 0 0 180) (layer B.Fab)\n      (effects (font (size 0.5 0.5) (thickness 0.08)) (justify mirror))\n    )\n    (fp_line (start 1.48 -0.73) (end -1.48 -0.73) (layer B.CrtYd) (width 0.05))\n    (fp_line (start 1.48 0.73) (end 1.48 -0.73) (layer B.CrtYd) (width 0.05))\n    (fp_line (start -1.48 0.73) (end 1.48 0.73) (layer B.CrtYd) (width 0.05))\n    (fp_line (start -1.48 -0.73) (end -1.48 0.73) (layer B.CrtYd) (width 0.05))\n    (fp_line (start -0.162779 -0.51) (end 0.162779 -0.51) (layer B.SilkS) (width 0.12))\n    (fp_line (start -0.162779 0.51) (end 0.162779 0.51) (layer B.SilkS) (width 0.12))\n    (fp_line (start 0.8 -0.4) (end -0.8 -0.4) (layer B.Fab) (width 0.1))\n    (fp_line (start 0.8 0.4) (end 0.8 -0.4) (layer B.Fab) (width 0.1))\n    (fp_line (start -0.8 0.4) (end 0.8 0.4) (layer B.Fab) (width 0.1))\n    (fp_line (start -0.8 -0.4) (end -0.8 0.4) (layer B.Fab) (width 0.1))\n    (pad 2 smd roundrect (at 0.7875 0 180) (size 0.875 0.95) (layers B.Cu B.Paste B.Mask) (roundrect_rratio 0.25)\n      (net 2 gnd))\n    (pad 1 smd roundrect (at -0.7875 0 180) (size 0.875 0.95) (layers B.Cu B.Paste B.Mask) (roundrect_rratio 0.25)\n      (net 1 v3v3))\n    (model ${KISYS3DMOD}/Capacitor_SMD.3dshapes/C_0603_1608Metric.wrl\n      (at (xyz 0 0 0))\n      (scale (xyz 1 1 1))\n      (rotate (xyz 0 0 0))\n    )\n  )\n\n  (module Package_TO_SOT_SMD:SOT-23 (layer B.Cu) (tedit 5A02FF57) (tstamp 5D6EB95E)\n    (at 162 140 270)\n    (descr "SOT-23, Standard")\n    (tags SOT-23)\n    (path /can/esd)\n    (attr smd)\n    (fp_text reference can.esd (at 0 2 270) (layer B.SilkS)\n      (effects (font (size 0.5 0.5) (thickness 0.08)) (justify mirror))\n    )\n    (fp_text value PESD1CAN,215 (at 0 -2.5 270) (layer B.Fab)\n      (effects (font (size 0.5 0.5) (thickness 0.08)) (justify mirror))\n    )\n    (fp_text user %R (at 0 0 180) (layer B.Fab)\n      (effects (font (size 0.5 0.5) (thickness 0.08)) (justify mirror))\n    )\n    (fp_line (start -0.7 0.95) (end -0.7 -1.5) (layer B.Fab) (width 0.1))\n    (fp_line (start -0.15 1.52) (end 0.7 1.52) (layer B.Fab) (width 0.1))\n    (fp_line (start -0.7 0.95) (end -0.15 1.52) (layer B.Fab) (width 0.1))\n    (fp_line (start 0.7 1.52) (end 0.7 -1.52) (layer B.Fab) (width 0.1))\n    (fp_line (start -0.7 -1.52) (end 0.7 -1.52) (layer B.Fab) (width 0.1))\n    (fp_line (start 0.76 -1.58) (end 0.76 -0.65) (layer B.SilkS) (width 0.12))\n    (fp_line (start 0.76 1.58) (end 0.76 0.65) (layer B.SilkS) (width 0.12))\n    (fp_line (start -1.7 1.75) (end 1.7 1.75) (layer B.CrtYd) (width 0.05))\n    (fp_line (start 1.7 1.75) (end 1.7 -1.75) (layer B.CrtYd) (width 0.05))\n    (fp_line (start 1.7 -1.75) (end -1.7 -1.75) (layer B.CrtYd) (width 0.05))\n    (fp_line (start -1.7 -1.75) (end -1.7 1.75) (layer B.CrtYd) (width 0.05))\n    (fp_line (start 0.76 1.58) (end -1.4 1.58) (layer B.SilkS) (width 0.12))\n    (fp_line (start 0.76 -1.58) (end -0.7 -1.58) (layer B.SilkS) (width 0.12))\n    (pad 1 smd rect (at -1 0.95 270) (size 0.9 0.8) (layers B.Cu B.Paste B.Mask)\n      (net 6 can.can.canl))\n    (pad 2 smd rect (at -1 -0.95 270) (size 0.9 0.8) (layers B.Cu B.Paste B.Mask)\n      (net 5 can.can.canh))\n    (pad 3 smd rect (at 1 0 270) (size 0.9 0.8) (layers B.Cu B.Paste B.Mask)\n      (net 4 can.can_gnd))\n    (model ${KISYS3DMOD}/Package_TO_SOT_SMD.3dshapes/SOT-23.wrl\n      (at (xyz 0 0 0))\n      (scale (xyz 1 1 1))\n      (rotate (xyz 0 0 0))\n    )\n  )\n\n  (module Capacitor_SMD:C_0603_1608Metric (layer B.Cu) (tedit 5B301BBE) (tstamp 5D6EB92A)\n    (at 165 126 180)\n    (descr "Capacitor SMD 0603 (1608 Metric), square (rectangular) end terminal, IPC_7351 nominal, (Body size source: http://www.tortai-tech.com/upload/download/2011102023233369053.pdf), generated with kicad-footprint-generator")\n    (tags capacitor)\n    (path /can/transceiver/can_cap)\n    (attr smd)\n    (fp_text reference can.transceiver.can_cap (at 0 1 180) (layer B.SilkS)\n      (effects (font (size 0.5 0.5) (thickness 0.08)) (justify mirror))\n    )\n    (fp_text value "0.1\xc2\xb5F, 50V, CL10B104KB8NNNC (C=(8e-08, 1.2e-07) F, V=(4.9, 5.1) V)" (at 0 -1.43 180) (layer B.Fab)\n      (effects (font (size 0.5 0.5) (thickness 0.08)) (justify mirror))\n    )\n    (fp_line (start -0.8 -0.4) (end -0.8 0.4) (layer B.Fab) (width 0.1))\n    (fp_line (start -0.8 0.4) (end 0.8 0.4) (layer B.Fab) (width 0.1))\n    (fp_line (start 0.8 0.4) (end 0.8 -0.4) (layer B.Fab) (width 0.1))\n    (fp_line (start 0.8 -0.4) (end -0.8 -0.4) (layer B.Fab) (width 0.1))\n    (fp_line (start -0.162779 0.51) (end 0.162779 0.51) (layer B.SilkS) (width 0.12))\n    (fp_line (start -0.162779 -0.51) (end 0.162779 -0.51) (layer B.SilkS) (width 0.12))\n    (fp_line (start -1.48 -0.73) (end -1.48 0.73) (layer B.CrtYd) (width 0.05))\n    (fp_line (start -1.48 0.73) (end 1.48 0.73) (layer B.CrtYd) (width 0.05))\n    (fp_line (start 1.48 0.73) (end 1.48 -0.73) (layer B.CrtYd) (width 0.05))\n    (fp_line (start 1.48 -0.73) (end -1.48 -0.73) (layer B.CrtYd) (width 0.05))\n    (fp_text user %R (at 0 0 180) (layer B.Fab)\n      (effects (font (size 0.5 0.5) (thickness 0.08)) (justify mirror))\n    )\n    (pad 1 smd roundrect (at -0.7875 0 180) (size 0.875 0.95) (layers B.Cu B.Paste B.Mask) (roundrect_rratio 0.25)\n      (net 8 can.transceiver.can_pwr))\n    (pad 2 smd roundrect (at 0.7875 0 180) (size 0.875 0.95) (layers B.Cu B.Paste B.Mask) (roundrect_rratio 0.25)\n      (net 4 can.can_gnd))\n    (model ${KISYS3DMOD}/Capacitor_SMD.3dshapes/C_0603_1608Metric.wrl\n      (at (xyz 0 0 0))\n      (scale (xyz 1 1 1))\n      (rotate (xyz 0 0 0))\n    )\n  )\n\n  (module Resistor_SMD:R_0603_1608Metric (layer B.Cu) (tedit 5B301BBD) (tstamp 5D6EB8FA)\n    (at 171 140 270)\n    (descr "Resistor SMD 0603 (1608 Metric), square (rectangular) end terminal, IPC_7351 nominal, (Body size source: http://www.tortai-tech.com/upload/download/2011102023233369053.pdf), generated with kicad-footprint-generator")\n    (tags resistor)\n    (path /can/can_fuse)\n    (attr smd)\n    (fp_text reference can.can_fuse (at 0 -1 270) (layer B.SilkS)\n      (effects (font (size 0.5 0.5) (thickness 0.08)) (justify mirror))\n    )\n    (fp_text value 0ZCM0005FF2G (at 0 -1.43 270) (layer B.Fab)\n      (effects (font (size 0.5 0.5) (thickness 0.08)) (justify mirror))\n    )\n    (fp_line (start -0.8 -0.4) (end -0.8 0.4) (layer B.Fab) (width 0.1))\n    (fp_line (start -0.8 0.4) (end 0.8 0.4) (layer B.Fab) (width 0.1))\n    (fp_line (start 0.8 0.4) (end 0.8 -0.4) (layer B.Fab) (width 0.1))\n    (fp_line (start 0.8 -0.4) (end -0.8 -0.4) (layer B.Fab) (width 0.1))\n    (fp_line (start -0.162779 0.51) (end 0.162779 0.51) (layer B.SilkS) (width 0.12))\n    (fp_line (start -0.162779 -0.51) (end 0.162779 -0.51) (layer B.SilkS) (width 0.12))\n    (fp_line (start -1.48 -0.73) (end -1.48 0.73) (layer B.CrtYd) (width 0.05))\n    (fp_line (start -1.48 0.73) (end 1.48 0.73) (layer B.CrtYd) (width 0.05))\n    (fp_line (start 1.48 0.73) (end 1.48 -0.73) (layer B.CrtYd) (width 0.05))\n    (fp_line (start 1.48 -0.73) (end -1.48 -0.73) (layer B.CrtYd) (width 0.05))\n    (fp_text user %R (at 0 0 270) (layer B.Fab)\n      (effects (font (size 0.5 0.5) (thickness 0.08)) (justify mirror))\n    )\n    (pad 1 smd roundrect (at -0.7875 0 270) (size 0.875 0.95) (layers B.Cu B.Paste B.Mask) (roundrect_rratio 0.25)\n      (net 3 can.can_pwr))\n    (pad 2 smd roundrect (at 0.7875 0 270) (size 0.875 0.95) (layers B.Cu B.Paste B.Mask) (roundrect_rratio 0.25)\n      (net 7 can.reg.pwr_in))\n    (model ${KISYS3DMOD}/Resistor_SMD.3dshapes/R_0603_1608Metric.wrl\n      (at (xyz 0 0 0))\n      (scale (xyz 1 1 1))\n      (rotate (xyz 0 0 0))\n    )\n  )\n\n  (module Package_TO_SOT_SMD:SOT-23-5 (layer B.Cu) (tedit 5A02FF57) (tstamp 5D6EB8C2)\n    (at 168 140 90)\n    (descr "5-pin SOT23 package")\n    (tags SOT-23-5)\n    (path /can/reg/ic)\n    (attr smd)\n    (fp_text reference can.reg.ic (at -2.5 0 180) (layer B.SilkS)\n      (effects (font (size 0.5 0.5) (thickness 0.08)) (justify mirror))\n    )\n    (fp_text value AP2204K-5.0 (at 0 -2.9 90) (layer B.Fab)\n      (effects (font (size 0.5 0.5) (thickness 0.08)) (justify mirror))\n    )\n    (fp_text user %R (at 0 0) (layer B.Fab)\n      (effects (font (size 0.5 0.5) (thickness 0.08)) (justify mirror))\n    )\n    (fp_line (start -0.9 -1.61) (end 0.9 -1.61) (layer B.SilkS) (width 0.12))\n    (fp_line (start 0.9 1.61) (end -1.55 1.61) (layer B.SilkS) (width 0.12))\n    (fp_line (start -1.9 1.8) (end 1.9 1.8) (layer B.CrtYd) (width 0.05))\n    (fp_line (start 1.9 1.8) (end 1.9 -1.8) (layer B.CrtYd) (width 0.05))\n    (fp_line (start 1.9 -1.8) (end -1.9 -1.8) (layer B.CrtYd) (width 0.05))\n    (fp_line (start -1.9 -1.8) (end -1.9 1.8) (layer B.CrtYd) (width 0.05))\n    (fp_line (start -0.9 0.9) (end -0.25 1.55) (layer B.Fab) (width 0.1))\n    (fp_line (start 0.9 1.55) (end -0.25 1.55) (layer B.Fab) (width 0.1))\n    (fp_line (start -0.9 0.9) (end -0.9 -1.55) (layer B.Fab) (width 0.1))\n    (fp_line (start 0.9 -1.55) (end -0.9 -1.55) (layer B.Fab) (width 0.1))\n    (fp_line (start 0.9 1.55) (end 0.9 -1.55) (layer B.Fab) (width 0.1))\n    (pad 1 smd rect (at -1.1 0.95 90) (size 1.06 0.65) (layers B.Cu B.Paste B.Mask)\n      (net 7 can.reg.pwr_in))\n    (pad 2 smd rect (at -1.1 0 90) (size 1.06 0.65) (layers B.Cu B.Paste B.Mask)\n      (net 4 can.can_gnd))\n    (pad 3 smd rect (at -1.1 -0.95 90) (size 1.06 0.65) (layers B.Cu B.Paste B.Mask)\n      (net 7 can.reg.pwr_in))\n    (pad 4 smd rect (at 1.1 -0.95 90) (size 1.06 0.65) (layers B.Cu B.Paste B.Mask))\n    (pad 5 smd rect (at 1.1 0.95 90) (size 1.06 0.65) (layers B.Cu B.Paste B.Mask)\n      (net 8 can.transceiver.can_pwr))\n    (model ${KISYS3DMOD}/Package_TO_SOT_SMD.3dshapes/SOT-23-5.wrl\n      (at (xyz 0 0 0))\n      (scale (xyz 1 1 1))\n      (rotate (xyz 0 0 0))\n    )\n  )\n\n  (module Package_SO:SOP-8_6.62x9.15mm_P2.54mm (layer F.Cu) (tedit 5C3278E0) (tstamp 5D6EB872)\n    (at 165 124 270)\n    (descr "SOP, 8 Pin (http://www.ti.com/lit/ds/symlink/iso1050.pdf), generated with kicad-footprint-generator ipc_gullwing_generator.py")\n    (tags "SOP SO")\n    (path /can/transceiver/ic)\n    (attr smd)\n    (fp_text reference can.transceiver.ic (at 0 -5 270) (layer F.SilkS)\n      (effects (font (size 0.5 0.5) (thickness 0.08)))\n    )\n    (fp_text value ISO1050DUB (at 0 5.52 270) (layer F.Fab)\n      (effects (font (size 0.5 0.5) (thickness 0.08)))\n    )\n    (fp_line (start 0 4.685) (end 3.42 4.685) (layer F.SilkS) (width 0.12))\n    (fp_line (start 3.42 4.685) (end 3.42 4.395) (layer F.SilkS) (width 0.12))\n    (fp_line (start 0 4.685) (end -3.42 4.685) (layer F.SilkS) (width 0.12))\n    (fp_line (start -3.42 4.685) (end -3.42 4.395) (layer F.SilkS) (width 0.12))\n    (fp_line (start 0 -4.685) (end 3.42 -4.685) (layer F.SilkS) (width 0.12))\n    (fp_line (start 3.42 -4.685) (end 3.42 -4.395) (layer F.SilkS) (width 0.12))\n    (fp_line (start 0 -4.685) (end -3.42 -4.685) (layer F.SilkS) (width 0.12))\n    (fp_line (start -3.42 -4.685) (end -3.42 -4.395) (layer F.SilkS) (width 0.12))\n    (fp_line (start -3.42 -4.395) (end -5.7 -4.395) (layer F.SilkS) (width 0.12))\n    (fp_line (start -2.31 -4.575) (end 3.31 -4.575) (layer F.Fab) (width 0.1))\n    (fp_line (start 3.31 -4.575) (end 3.31 4.575) (layer F.Fab) (width 0.1))\n    (fp_line (start 3.31 4.575) (end -3.31 4.575) (layer F.Fab) (width 0.1))\n    (fp_line (start -3.31 4.575) (end -3.31 -3.575) (layer F.Fab) (width 0.1))\n    (fp_line (start -3.31 -3.575) (end -2.31 -4.575) (layer F.Fab) (width 0.1))\n    (fp_line (start -5.95 -4.82) (end -5.95 4.82) (layer F.CrtYd) (width 0.05))\n    (fp_line (start -5.95 4.82) (end 5.95 4.82) (layer F.CrtYd) (width 0.05))\n    (fp_line (start 5.95 4.82) (end 5.95 -4.82) (layer F.CrtYd) (width 0.05))\n    (fp_line (start 5.95 -4.82) (end -5.95 -4.82) (layer F.CrtYd) (width 0.05))\n    (fp_text user %R (at 0 0 270) (layer F.Fab)\n      (effects (font (size 0.5 0.5) (thickness 0.08)))\n    )\n    (pad 1 smd roundrect (at -4.525 -3.81 270) (size 2.35 0.65) (layers F.Cu F.Paste F.Mask) (roundrect_rratio 0.25)\n      (net 1 v3v3))\n    (pad 2 smd roundrect (at -4.525 -1.27 270) (size 2.35 0.65) (layers F.Cu F.Paste F.Mask) (roundrect_rratio 0.25)\n      (net 9 can.controller.rxd))\n    (pad 3 smd roundrect (at -4.525 1.27 270) (size 2.35 0.65) (layers F.Cu F.Paste F.Mask) (roundrect_rratio 0.25)\n      (net 10 mcu.can_0.txd))\n    (pad 4 smd roundrect (at -4.525 3.81 270) (size 2.35 0.65) (layers F.Cu F.Paste F.Mask) (roundrect_rratio 0.25)\n      (net 2 gnd))\n    (pad 5 smd roundrect (at 4.525 3.81 270) (size 2.35 0.65) (layers F.Cu F.Paste F.Mask) (roundrect_rratio 0.25)\n      (net 4 can.can_gnd))\n    (pad 6 smd roundrect (at 4.525 1.27 270) (size 2.35 0.65) (layers F.Cu F.Paste F.Mask) (roundrect_rratio 0.25)\n      (net 6 can.can.canl))\n    (pad 7 smd roundrect (at 4.525 -1.27 270) (size 2.35 0.65) (layers F.Cu F.Paste F.Mask) (roundrect_rratio 0.25)\n      (net 5 can.can.canh))\n    (pad 8 smd roundrect (at 4.525 -3.81 270) (size 2.35 0.65) (layers F.Cu F.Paste F.Mask) (roundrect_rratio 0.25)\n      (net 8 can.transceiver.can_pwr))\n    (model ${KISYS3DMOD}/Package_SO.3dshapes/SOP-8_6.62x9.15mm_P2.54mm.wrl\n      (at (xyz 0 0 0))\n      (scale (xyz 1 1 1))\n      (rotate (xyz 0 0 0))\n    )\n  )\n\n  (module calisco:Molex_DuraClik_vert_5pin (layer F.Cu) (tedit 5A6AB554) (tstamp 5D6EB6FD)\n    (at 165 141)\n    (path /can/conn)\n    (fp_text reference can.conn (at -7 -5.5) (layer F.SilkS)\n      (effects (font (size 0.5 0.5) (thickness 0.08)))\n    )\n    (fp_text value Duraclik (at 0.4 -9) (layer F.Fab)\n      (effects (font (size 0.5 0.5) (thickness 0.08)))\n    )\n    (fp_line (start -8.4 3) (end 8.4 3) (layer F.SilkS) (width 0.15))\n    (fp_line (start 8.4 3) (end 8.4 -4.8) (layer F.SilkS) (width 0.15))\n    (fp_line (start 8.4 -4.8) (end -8.4 -4.8) (layer F.SilkS) (width 0.15))\n    (fp_line (start -8.4 -4.8) (end -8.4 3) (layer F.SilkS) (width 0.15))\n    (pad "" smd rect (at -7.6 0) (size 2 4.2) (layers F.Cu F.Paste F.Mask))\n    (pad "" smd rect (at 7.6 0) (size 2 4.2) (layers F.Cu F.Paste F.Mask))\n    (pad 1 smd rect (at 4 -5.58) (size 1.2 2.2) (layers F.Cu F.Paste F.Mask))\n    (pad 2 smd rect (at 2 -5.58) (size 1.2 2.2) (layers F.Cu F.Paste F.Mask)\n      (net 3 can.can_pwr))\n    (pad 3 smd rect (at 0 -5.58) (size 1.2 2.2) (layers F.Cu F.Paste F.Mask)\n      (net 4 can.can_gnd))\n    (pad 4 smd rect (at -2 -5.58) (size 1.2 2.2) (layers F.Cu F.Paste F.Mask)\n      (net 5 can.can.canh))\n    (pad 5 smd rect (at -4 -5.58) (size 1.2 2.2) (layers F.Cu F.Paste F.Mask)\n      (net 6 can.can.canl))\n  )\n\n  (module Capacitor_SMD:C_0805_2012Metric (layer B.Cu) (tedit 5B36C52B) (tstamp 5D6FDD85)\n    (at 168 136 180)\n    (descr "Capacitor SMD 0805 (2012 Metric), square (rectangular) end terminal, IPC_7351 nominal, (Body size source: https://docs.google.com/spreadsheets/d/1BsfQQcO9C6DZCsRaXUlFlo91Tg2WpOkGARC1WS5S8t0/edit?usp=sharing), generated with kicad-footprint-generator")\n    (tags capacitor)\n    (path /can/reg/out_cap)\n    (attr smd)\n    (fp_text reference can.reg.out_cap (at 0 1.65 180) (layer B.SilkS)\n      (effects (font (size 0.5 0.5) (thickness 0.08)) (justify mirror))\n    )\n    (fp_text value "2.2\xc2\xb5F, 10V, CL21B225KPFNNNE (C=(1.76e-06, 2.64e-06) F, V=(4.9, 5.1) V)" (at 0 -1.65 180) (layer B.Fab)\n      (effects (font (size 0.5 0.5) (thickness 0.08)) (justify mirror))\n    )\n    (fp_line (start -1 -0.6) (end -1 0.6) (layer B.Fab) (width 0.1))\n    (fp_line (start -1 0.6) (end 1 0.6) (layer B.Fab) (width 0.1))\n    (fp_line (start 1 0.6) (end 1 -0.6) (layer B.Fab) (width 0.1))\n    (fp_line (start 1 -0.6) (end -1 -0.6) (layer B.Fab) (width 0.1))\n    (fp_line (start -0.258578 0.71) (end 0.258578 0.71) (layer B.SilkS) (width 0.12))\n    (fp_line (start -0.258578 -0.71) (end 0.258578 -0.71) (layer B.SilkS) (width 0.12))\n    (fp_line (start -1.68 -0.95) (end -1.68 0.95) (layer B.CrtYd) (width 0.05))\n    (fp_line (start -1.68 0.95) (end 1.68 0.95) (layer B.CrtYd) (width 0.05))\n    (fp_line (start 1.68 0.95) (end 1.68 -0.95) (layer B.CrtYd) (width 0.05))\n    (fp_line (start 1.68 -0.95) (end -1.68 -0.95) (layer B.CrtYd) (width 0.05))\n    (fp_text user %R (at 0 0 180) (layer B.Fab)\n      (effects (font (size 0.5 0.5) (thickness 0.08)) (justify mirror))\n    )\n    (pad 1 smd roundrect (at -0.9375 0 180) (size 0.975 1.4) (layers B.Cu B.Paste B.Mask) (roundrect_rratio 0.25)\n      (net 8 can.transceiver.can_pwr))\n    (pad 2 smd roundrect (at 0.9375 0 180) (size 0.975 1.4) (layers B.Cu B.Paste B.Mask) (roundrect_rratio 0.25)\n      (net 4 can.can_gnd))\n    (model ${KISYS3DMOD}/Capacitor_SMD.3dshapes/C_0805_2012Metric.wrl\n      (at (xyz 0 0 0))\n      (scale (xyz 1 1 1))\n      (rotate (xyz 0 0 0))\n    )\n  )\n\n  (segment (start 165.7875 122) (end 169 122) (width 0.5) (layer B.Cu) (net 1) (status 10))\n  (segment (start 168.81 119.475) (end 168.81 121.81) (width 0.5) (layer F.Cu) (net 1) (status 10))\n  (segment (start 168.81 121.81) (end 169 122) (width 0.5) (layer F.Cu) (net 1))\n  (via (at 169 122) (size 0.8) (drill 0.4) (layers F.Cu B.Cu) (net 1))\n  (via (at 162 122) (size 0.8) (drill 0.4) (layers F.Cu B.Cu) (net 2) (tstamp 5D6EB99C))\n  (segment (start 161.19 119.475) (end 161.19 121.19) (width 0.5) (layer F.Cu) (net 2) (tstamp 5D6EB774) (status 10))\n  (segment (start 161.19 121.19) (end 162 122) (width 0.5) (layer F.Cu) (net 2) (tstamp 5D6EB777))\n  (segment (start 162 122) (end 164.2125 122) (width 0.5) (layer B.Cu) (net 2) (tstamp 5D6EB771) (status 20))\n  (segment (start 167 135.42) (end 167 134) (width 0.5) (layer F.Cu) (net 3) (tstamp 5D6EB7A4) (status 10))\n  (segment (start 167 134) (end 168 133) (width 0.5) (layer F.Cu) (net 3) (tstamp 5D6EB798))\n  (segment (start 168 133) (end 170 133) (width 0.5) (layer F.Cu) (net 3) (tstamp 5D6EB7A7))\n  (segment (start 170 133) (end 171 134) (width 0.5) (layer F.Cu) (net 3) (tstamp 5D6EB792))\n  (via (at 171 134) (size 0.8) (drill 0.4) (layers F.Cu B.Cu) (net 3) (tstamp 5D6EB9A2))\n  (segment (start 171 139.2125) (end 171 134) (width 0.5) (layer B.Cu) (net 3) (tstamp 5D6EB9EA) (status 10))\n  (segment (start 165 139.2125) (end 165 139) (width 0.25) (layer B.Cu) (net 4) (tstamp 5D6EB9C0) (status 30))\n  (via (at 162 126) (size 0.8) (drill 0.4) (layers F.Cu B.Cu) (net 4) (tstamp 5D6EB99F))\n  (segment (start 161.19 128.525) (end 161.19 126.81) (width 0.5) (layer F.Cu) (net 4) (tstamp 5D6EB6DE) (status 10))\n  (segment (start 161.19 126.81) (end 162 126) (width 0.5) (layer F.Cu) (net 4) (tstamp 5D6EB6DB))\n  (segment (start 162 126) (end 164.2125 126) (width 0.5) (layer B.Cu) (net 4) (tstamp 5D6EB6E1) (status 20))\n  (segment (start 167.0625 136) (end 167.0625 135.0625) (width 0.5) (layer B.Cu) (net 4) (tstamp 5D6EB789) (status 10))\n  (segment (start 162 130) (end 162 126) (width 0.5) (layer B.Cu) (net 4) (tstamp 5D6EB786))\n  (segment (start 167.0625 135.0625) (end 162 130) (width 0.5) (layer B.Cu) (net 4) (tstamp 5D6EB783))\n  (via (at 165 138) (size 0.8) (drill 0.4) (layers F.Cu B.Cu) (net 4) (tstamp 5D6EB9A5))\n  (segment (start 165 135.42) (end 165 138) (width 0.5) (layer F.Cu) (net 4) (tstamp 5D6EB79E) (status 10))\n  (segment (start 165 138) (end 165 139.2125) (width 0.5) (layer B.Cu) (net 4) (tstamp 5D6EB780) (status 20))\n  (segment (start 165 138) (end 165 137) (width 0.5) (layer B.Cu) (net 4) (tstamp 5D6EB7B3))\n  (segment (start 166 136) (end 167.0625 136) (width 0.5) (layer B.Cu) (net 4) (tstamp 5D6EB78F) (status 30))\n  (segment (start 165 137) (end 166 136) (width 0.5) (layer B.Cu) (net 4) (tstamp 5D6EB795) (status 20))\n  (segment (start 168 140.456998) (end 167.543002 140) (width 0.5) (layer B.Cu) (net 4) (tstamp 5D6EB9C6))\n  (segment (start 168 141.1) (end 168 140.456998) (width 0.5) (layer B.Cu) (net 4) (tstamp 5D6EB9CC) (status 10))\n  (segment (start 165.769498 139.2125) (end 165 139.2125) (width 0.5) (layer B.Cu) (net 4) (tstamp 5D6EB9C9) (status 20))\n  (segment (start 166.556998 140) (end 165.769498 139.2125) (width 0.5) (layer B.Cu) (net 4) (tstamp 5D6EB9D2))\n  (segment (start 167.543002 140) (end 166.556998 140) (width 0.5) (layer B.Cu) (net 4) (tstamp 5D6EB9CF))\n  (via (at 163 141) (size 0.8) (drill 0.4) (layers F.Cu B.Cu) (net 4) (tstamp 5D6EB996))\n  (segment (start 165 138) (end 165 139) (width 0.5) (layer F.Cu) (net 4) (tstamp 5D6EB9DE))\n  (segment (start 165 139) (end 163 141) (width 0.5) (layer F.Cu) (net 4) (tstamp 5D6EB9E1))\n  (segment (start 163 141) (end 162 141) (width 0.5) (layer B.Cu) (net 4) (tstamp 5D6EB9E4) (status 20))\n  (segment (start 163 135.42) (end 163 138) (width 0.25) (layer F.Cu) (net 5) (tstamp 5D6EB852) (status 10))\n  (via (at 163 138) (size 0.8) (drill 0.4) (layers F.Cu B.Cu) (net 5) (tstamp 5D6EB9AB))\n  (segment (start 163 138.95) (end 162.95 139) (width 0.25) (layer B.Cu) (net 5) (tstamp 5D6EB6ED) (status 30))\n  (segment (start 163 138) (end 163 138.95) (width 0.25) (layer B.Cu) (net 5) (tstamp 5D6EB6EA) (status 20))\n  (segment (start 166.27 128.525) (end 166.27 129.73) (width 0.25) (layer F.Cu) (net 5) (tstamp 5D6EB9B1) (status 10))\n  (segment (start 163 133) (end 163 135.42) (width 0.25) (layer F.Cu) (net 5) (tstamp 5D6EB9B7) (status 20))\n  (segment (start 166.27 129.73) (end 163 133) (width 0.25) (layer F.Cu) (net 5) (tstamp 5D6EB9B4))\n  (segment (start 161 135.42) (end 161 138) (width 0.25) (layer F.Cu) (net 6) (tstamp 5D6EB84F) (status 10))\n  (via (at 161 138) (size 0.8) (drill 0.4) (layers F.Cu B.Cu) (net 6) (tstamp 5D6EB9AE))\n  (segment (start 161 138.95) (end 161.05 139) (width 0.25) (layer B.Cu) (net 6) (tstamp 5D6EB990) (status 30))\n  (segment (start 161 138) (end 161 138.95) (width 0.25) (layer B.Cu) (net 6) (tstamp 5D6EB98D) (status 20))\n  (segment (start 163.73 128.525) (end 163.73 130.27) (width 0.25) (layer F.Cu) (net 6) (tstamp 5D6EB987) (status 10))\n  (segment (start 161 133) (end 161 135.42) (width 0.25) (layer F.Cu) (net 6) (tstamp 5D6EB993) (status 20))\n  (segment (start 163.73 130.27) (end 161 133) (width 0.25) (layer F.Cu) (net 6) (tstamp 5D6EB98A))\n  (segment (start 171 140.7875) (end 171 142) (width 0.5) (layer B.Cu) (net 7) (tstamp 5D6EB7A1) (status 10))\n  (segment (start 171 142) (end 170.5 142.5) (width 0.5) (layer B.Cu) (net 7) (tstamp 5D6EB79B))\n  (segment (start 168.95 142.45) (end 169 142.5) (width 0.5) (layer B.Cu) (net 7) (tstamp 5D6EB9BD))\n  (segment (start 168.95 141.1) (end 168.95 142.45) (width 0.5) (layer B.Cu) (net 7) (tstamp 5D6EB9BA) (status 10))\n  (segment (start 165 140.7875) (end 165 142) (width 0.5) (layer B.Cu) (net 7) (tstamp 5D6EB7B0) (status 10))\n  (segment (start 165.5 142.5) (end 168 142.5) (width 0.5) (layer B.Cu) (net 7) (tstamp 5D6EB7AA))\n  (segment (start 165 142) (end 165.5 142.5) (width 0.5) (layer B.Cu) (net 7) (tstamp 5D6EB7AD))\n  (segment (start 170.5 142.5) (end 168 142.5) (width 0.5) (layer B.Cu) (net 7) (tstamp 5D6EB77D))\n  (segment (start 168 142.5) (end 167.5 142.5) (width 0.5) (layer B.Cu) (net 7) (tstamp 5D6EB78C))\n  (segment (start 167.05 141.1) (end 167.05 142.5) (width 0.5) (layer B.Cu) (net 7) (tstamp 5D6EB77A) (status 10))\n  (via (at 168 126) (size 0.8) (drill 0.4) (layers F.Cu B.Cu) (net 8) (tstamp 5D6EB9A8))\n  (segment (start 165.7875 126) (end 168 126) (width 0.5) (layer B.Cu) (net 8) (tstamp 5D6EB7BC) (status 10))\n  (segment (start 168.81 128.525) (end 168.81 126.81) (width 0.5) (layer F.Cu) (net 8) (tstamp 5D6EB7B9) (status 10))\n  (segment (start 168.81 126.81) (end 168 126) (width 0.5) (layer F.Cu) (net 8) (tstamp 5D6EB7B6))\n  (segment (start 168 131) (end 168 126) (width 0.5) (layer B.Cu) (net 8) (tstamp 5D6EB9DB))\n  (segment (start 168.9375 136) (end 168.9375 131.9375) (width 0.5) (layer B.Cu) (net 8) (tstamp 5D6EB9D5) (status 10))\n  (segment (start 168.9375 131.9375) (end 168 131) (width 0.5) (layer B.Cu) (net 8) (tstamp 5D6EB9D8))\n  (segment (start 168.95 136.0125) (end 168.9375 136) (width 0.5) (layer B.Cu) (net 8) (tstamp 5D6EB9ED) (status 30))\n  (segment (start 168.95 138.9) (end 168.95 136.0125) (width 0.5) (layer B.Cu) (net 8) (tstamp 5D6EB9E7) (status 30))\n\n)\n'
p3
S'1b1aa683fb99e836c2f0545ed8c33856'
p4
(dp5
S'vsense'
p6
(lp7
S'vsense'
p8
aVelectronics_abstract_parts_ResistiveDivider_VoltageDivider_-7B2AFEE3.sch
p9
asS'rgb1'
p10
(lp11
S'rgb1'
p12
aVelectronics_lib_Leds_IndicatorSinkRgbLed_-AAC81B5.sch
p13
asS'light_4'
p14
(lp15
S'light_4'
p16
aVelectronics_lib_CalSolBlocks_CalSolLightsDriver_-75A5DEAE.sch
p17
asS'light_5'
p18
(lp19
S'light_5'
p20
aVelectronics_lib_CalSolBlocks_CalSolLightsDriver_-75A5DEAE.sch
p21
asS'pwr'
p22
(lp23
S'pwr'
p24
aVelectronics_abstract_parts_AbstractPowerConverters_DiscreteBuckConverter_52817A5C.sch
p25
asS'drv_1'
p26
(lp27
S'drv_1'
p28
aVelectronics_abstract_parts_DigitalAmplifiers_HighSideSwitch_-41C22D73.sch
p29
asS'light_0'
p30
(lp31
S'light_0'
p32
aVelectronics_lib_CalSolBlocks_CalSolLightsDriver_-75A5DEAE.sch
p33
asS'crystal'
p34
(lp35
S'crystal'
p36
aVelectronics_lib_Crystals_Crystal_-709F42A8.sch
p37
asS'light_1'
p38
(lp39
S'light_1'
p40
aVelectronics_lib_CalSolBlocks_CalSolLightsDriver_-75A5DEAE.sch
p41
asS'transceiver'
p42
(lp43
S'transceiver'
p44
aVelectronics_lib_Iso1050_Iso1050dub_660B13D7.sch
p45
asS'fb'
p46
(lp47
S'fb'
p48
aVelectronics_abstract_parts_ResistiveDivider_VoltageDivider_-7B2AFEE3.sch
p49
asS'light_2'
p50
(lp51
S'light_2'
p52
aVelectronics_lib_CalSolBlocks_CalSolLightsDriver_-75A5DEAE.sch
p53
asS'can'
p54
(lp55
S'can'
p56
aVelectronics_lib_CalSolBlocks_CalSolCanBlock_6A439F28.sch
p57
asS'drv_0'
p58
(lp59
S'drv_0'
p60
aVelectronics_abstract_parts_DigitalAmplifiers_HighSideSwitch_-41C22D73.sch
p61
asS'mcu'
p62
(lp63
S'mcu'
p64
aVelectronics_lib_Lpc1549_Lpc1549_61320EAA.sch
p65
asS'rgb2'
p66
(lp67
S'rgb2'
p68
aVelectronics_lib_Leds_IndicatorSinkRgbLed_-AAC81B5.sch
p69
asS'reg'
p70
(lp71
S'reg'
p72
aVelectronics_lib_LinearRegulators_Ap2204k_5_0_-4146742D.sch
p73
asS'light_3'
p74
(lp75
S'light_3'
p76
aVelectronics_lib_CalSolBlocks_CalSolLightsDriver_-75A5DEAE.sch
p77
as(lp78
Vcan.reg.pwr_in
p79
aVcan.can_gnd
p80
aVcan.can.canl
p81
aVcan.can.canh
p82
aVcan.transceiver.can_pwr
p83
aVcan.can_pwr
p84
a(lp85
g56
a(lp86
g57
atp87
tp88
Rp89
.