ccopy_reg
_reconstructor
p0
(csave_restore_layout.save_restore_layout
LayoutData
p1
c__builtin__
tuple
p2
(S'(kicad_pcb (version 20171130) (host pcbnew "(5.1.0)-1")\n\n  (general\n    (thickness 1.6)\n    (drawings 0)\n    (tracks 175)\n    (zones 0)\n    (modules 16)\n    (nets 30)\n  )\n\n  (page A4)\n  (layers\n    (0 F.Cu signal)\n    (31 B.Cu signal)\n    (32 B.Adhes user)\n    (33 F.Adhes user)\n    (34 B.Paste user)\n    (35 F.Paste user)\n    (36 B.SilkS user)\n    (37 F.SilkS user)\n    (38 B.Mask user)\n    (39 F.Mask user)\n    (40 Dwgs.User user)\n    (41 Cmts.User user)\n    (42 Eco1.User user)\n    (43 Eco2.User user)\n    (44 Edge.Cuts user)\n    (45 Margin user)\n    (46 B.CrtYd user hide)\n    (47 F.CrtYd user hide)\n    (48 B.Fab user hide)\n    (49 F.Fab user hide)\n  )\n\n  (setup\n    (last_trace_width 0.16)\n    (user_trace_width 0.16)\n    (user_trace_width 0.25)\n    (user_trace_width 0.5)\n    (user_trace_width 1)\n    (trace_clearance 0.16)\n    (zone_clearance 0.254)\n    (zone_45_only no)\n    (trace_min 0.16)\n    (via_size 0.8)\n    (via_drill 0.4)\n    (via_min_size 0.4)\n    (via_min_drill 0.3)\n    (user_via 0.8 0.4)\n    (user_via 1.2 0.8)\n    (uvia_size 0.3)\n    (uvia_drill 0.1)\n    (uvias_allowed no)\n    (uvia_min_size 0.2)\n    (uvia_min_drill 0.1)\n    (edge_width 0.05)\n    (segment_width 0.2)\n    (pcb_text_width 0.3)\n    (pcb_text_size 1.5 1.5)\n    (mod_edge_width 0.12)\n    (mod_text_size 1 1)\n    (mod_text_width 0.15)\n    (pad_size 1.524 1.524)\n    (pad_drill 0.762)\n    (pad_to_mask_clearance 0.051)\n    (solder_mask_min_width 0.25)\n    (aux_axis_origin 0 0)\n    (visible_elements 7FFFFFFF)\n    (pcbplotparams\n      (layerselection 0x010fc_ffffffff)\n      (usegerberextensions false)\n      (usegerberattributes false)\n      (usegerberadvancedattributes false)\n      (creategerberjobfile false)\n      (excludeedgelayer true)\n      (linewidth 0.100000)\n      (plotframeref false)\n      (viasonmask false)\n      (mode 1)\n      (useauxorigin false)\n      (hpglpennumber 1)\n      (hpglpenspeed 20)\n      (hpglpendiameter 15.000000)\n      (psnegative false)\n      (psa4output false)\n      (plotreference true)\n      (plotvalue true)\n      (plotinvisibletext false)\n      (padsonsilk false)\n      (subtractmaskfromsilk false)\n      (outputformat 1)\n      (mirror false)\n      (drillshape 1)\n      (scaleselection 1)\n      (outputdirectory ""))\n  )\n\n  (net 0 "")\n  (net 1 v3v3)\n  (net 2 gnd)\n  (net 3 mcu.can_0.rxd)\n  (net 4 can.controller.txd)\n  (net 5 mcu.xtal.xtal_in)\n  (net 6 crystal.crystal.b)\n  (net 7 light_2.control_1)\n  (net 8 rgb2.blue)\n  (net 9 light_0.control_0)\n  (net 10 mcu.digital_9)\n  (net 11 light_5.control_1)\n  (net 12 rgb1.red)\n  (net 13 mcu.digital_16)\n  (net 14 mcu.digital_18)\n  (net 15 light_0.control_1)\n  (net 16 mcu.digital_11)\n  (net 17 light_1.control_1)\n  (net 18 light_3.control_0)\n  (net 19 light_3.control_1)\n  (net 20 mcu.digital_5)\n  (net 21 light_4.control_1)\n  (net 22 mcu.digital_3)\n  (net 23 swd.swd.swo)\n  (net 24 rgb2.green)\n  (net 25 vsense.center)\n  (net 26 mcu.digital_17)\n  (net 27 mcu.swd.swclk)\n  (net 28 mcu.swd.swdio)\n  (net 29 mcu.swd.reset)\n\n  (net_class Default "This is the default net class."\n    (clearance 0.16)\n    (trace_width 0.16)\n    (via_dia 0.8)\n    (via_drill 0.4)\n    (uvia_dia 0.3)\n    (uvia_drill 0.1)\n    (add_net can.controller.txd)\n    (add_net crystal.crystal.b)\n    (add_net gnd)\n    (add_net light_0.control_0)\n    (add_net light_0.control_1)\n    (add_net light_1.control_1)\n    (add_net light_2.control_1)\n    (add_net light_3.control_0)\n    (add_net light_3.control_1)\n    (add_net light_4.control_1)\n    (add_net light_5.control_1)\n    (add_net mcu.can_0.rxd)\n    (add_net mcu.digital_11)\n    (add_net mcu.digital_16)\n    (add_net mcu.digital_17)\n    (add_net mcu.digital_18)\n    (add_net mcu.digital_3)\n    (add_net mcu.digital_5)\n    (add_net mcu.digital_9)\n    (add_net mcu.swd.reset)\n    (add_net mcu.swd.swclk)\n    (add_net mcu.swd.swdio)\n    (add_net mcu.xtal.xtal_in)\n    (add_net "pwr.(adapter_net)vbst_cap.neg.0")\n    (add_net "pwr.(adapter_net)vbst_cap.pos.0")\n    (add_net pwr.fb.out)\n    (add_net rgb1.green_res.a)\n    (add_net rgb1.red)\n    (add_net rgb1.red_res.a)\n    (add_net rgb2.blue)\n    (add_net rgb2.green)\n    (add_net rgb2.green_res.a)\n    (add_net rgb2.package.blue_k)\n    (add_net rgb2.package.red_k)\n    (add_net swd.swd.swo)\n    (add_net v3v3)\n    (add_net vsense.center)\n  )\n\n  (module Package_QFP:LQFP-48_7x7mm_P0.5mm (layer F.Cu) (tedit 5C18330E) (tstamp 5D6F45A6)\n    (at 145 110 315)\n    (descr "LQFP, 48 Pin (https://www.analog.com/media/en/technical-documentation/data-sheets/ltc2358-16.pdf), generated with kicad-footprint-generator ipc_gullwing_generator.py")\n    (tags "LQFP QFP")\n    (path /mcu/ic)\n    (attr smd)\n    (fp_text reference mcu.ic (at 0 -5.85 315) (layer F.SilkS)\n      (effects (font (size 0.5 0.5) (thickness 0.08)))\n    )\n    (fp_text value LPC1549JBD48 (at 0 5.85 315) (layer F.Fab)\n      (effects (font (size 0.5 0.5) (thickness 0.08)))\n    )\n    (fp_line (start 3.16 3.61) (end 3.61 3.61) (layer F.SilkS) (width 0.12))\n    (fp_line (start 3.61 3.61) (end 3.61 3.16) (layer F.SilkS) (width 0.12))\n    (fp_line (start -3.16 3.61) (end -3.61 3.61) (layer F.SilkS) (width 0.12))\n    (fp_line (start -3.61 3.61) (end -3.61 3.16) (layer F.SilkS) (width 0.12))\n    (fp_line (start 3.16 -3.61) (end 3.61 -3.61) (layer F.SilkS) (width 0.12))\n    (fp_line (start 3.61 -3.61) (end 3.61 -3.16) (layer F.SilkS) (width 0.12))\n    (fp_line (start -3.16 -3.61) (end -3.61 -3.61) (layer F.SilkS) (width 0.12))\n    (fp_line (start -3.61 -3.61) (end -3.61 -3.16) (layer F.SilkS) (width 0.12))\n    (fp_line (start -3.61 -3.16) (end -4.9 -3.16) (layer F.SilkS) (width 0.12))\n    (fp_line (start -2.5 -3.5) (end 3.5 -3.5) (layer F.Fab) (width 0.1))\n    (fp_line (start 3.5 -3.5) (end 3.5 3.5) (layer F.Fab) (width 0.1))\n    (fp_line (start 3.5 3.5) (end -3.5 3.5) (layer F.Fab) (width 0.1))\n    (fp_line (start -3.5 3.5) (end -3.5 -2.5) (layer F.Fab) (width 0.1))\n    (fp_line (start -3.5 -2.5) (end -2.5 -3.5) (layer F.Fab) (width 0.1))\n    (fp_line (start 0 -5.15) (end -3.15 -5.15) (layer F.CrtYd) (width 0.05))\n    (fp_line (start -3.15 -5.15) (end -3.15 -3.75) (layer F.CrtYd) (width 0.05))\n    (fp_line (start -3.15 -3.75) (end -3.75 -3.75) (layer F.CrtYd) (width 0.05))\n    (fp_line (start -3.75 -3.75) (end -3.75 -3.15) (layer F.CrtYd) (width 0.05))\n    (fp_line (start -3.75 -3.15) (end -5.15 -3.15) (layer F.CrtYd) (width 0.05))\n    (fp_line (start -5.15 -3.15) (end -5.15 0) (layer F.CrtYd) (width 0.05))\n    (fp_line (start 0 -5.15) (end 3.15 -5.15) (layer F.CrtYd) (width 0.05))\n    (fp_line (start 3.15 -5.15) (end 3.15 -3.75) (layer F.CrtYd) (width 0.05))\n    (fp_line (start 3.15 -3.75) (end 3.75 -3.75) (layer F.CrtYd) (width 0.05))\n    (fp_line (start 3.75 -3.75) (end 3.75 -3.15) (layer F.CrtYd) (width 0.05))\n    (fp_line (start 3.75 -3.15) (end 5.15 -3.15) (layer F.CrtYd) (width 0.05))\n    (fp_line (start 5.15 -3.15) (end 5.15 0) (layer F.CrtYd) (width 0.05))\n    (fp_line (start 0 5.15) (end -3.15 5.15) (layer F.CrtYd) (width 0.05))\n    (fp_line (start -3.15 5.15) (end -3.15 3.75) (layer F.CrtYd) (width 0.05))\n    (fp_line (start -3.15 3.75) (end -3.75 3.75) (layer F.CrtYd) (width 0.05))\n    (fp_line (start -3.75 3.75) (end -3.75 3.15) (layer F.CrtYd) (width 0.05))\n    (fp_line (start -3.75 3.15) (end -5.15 3.15) (layer F.CrtYd) (width 0.05))\n    (fp_line (start -5.15 3.15) (end -5.15 0) (layer F.CrtYd) (width 0.05))\n    (fp_line (start 0 5.15) (end 3.15 5.15) (layer F.CrtYd) (width 0.05))\n    (fp_line (start 3.15 5.15) (end 3.15 3.75) (layer F.CrtYd) (width 0.05))\n    (fp_line (start 3.15 3.75) (end 3.75 3.75) (layer F.CrtYd) (width 0.05))\n    (fp_line (start 3.75 3.75) (end 3.75 3.15) (layer F.CrtYd) (width 0.05))\n    (fp_line (start 3.75 3.15) (end 5.15 3.15) (layer F.CrtYd) (width 0.05))\n    (fp_line (start 5.15 3.15) (end 5.15 0) (layer F.CrtYd) (width 0.05))\n    (fp_text user %R (at 0 0 315) (layer F.Fab)\n      (effects (font (size 0.5 0.5) (thickness 0.08)))\n    )\n    (pad 1 smd roundrect (at -4.1625 -2.75 315) (size 1.475 0.3) (layers F.Cu F.Paste F.Mask) (roundrect_rratio 0.25)\n      (net 19 light_3.control_1))\n    (pad 2 smd roundrect (at -4.1625 -2.25 315) (size 1.475 0.3) (layers F.Cu F.Paste F.Mask) (roundrect_rratio 0.25)\n      (net 18 light_3.control_0))\n    (pad 3 smd roundrect (at -4.1625 -1.75 315) (size 1.475 0.3) (layers F.Cu F.Paste F.Mask) (roundrect_rratio 0.25)\n      (net 7 light_2.control_1))\n    (pad 4 smd roundrect (at -4.1625 -1.25 315) (size 1.475 0.3) (layers F.Cu F.Paste F.Mask) (roundrect_rratio 0.25)\n      (net 10 mcu.digital_9))\n    (pad 5 smd roundrect (at -4.1625 -0.75 315) (size 1.475 0.3) (layers F.Cu F.Paste F.Mask) (roundrect_rratio 0.25))\n    (pad 6 smd roundrect (at -4.1625 -0.25 315) (size 1.475 0.3) (layers F.Cu F.Paste F.Mask) (roundrect_rratio 0.25)\n      (net 17 light_1.control_1))\n    (pad 7 smd roundrect (at -4.1625 0.25 315) (size 1.475 0.3) (layers F.Cu F.Paste F.Mask) (roundrect_rratio 0.25)\n      (net 16 mcu.digital_11))\n    (pad 8 smd roundrect (at -4.1625 0.75 315) (size 1.475 0.3) (layers F.Cu F.Paste F.Mask) (roundrect_rratio 0.25)\n      (net 15 light_0.control_1))\n    (pad 9 smd roundrect (at -4.1625 1.25 315) (size 1.475 0.3) (layers F.Cu F.Paste F.Mask) (roundrect_rratio 0.25)\n      (net 23 swd.swd.swo))\n    (pad 10 smd roundrect (at -4.1625 1.75 315) (size 1.475 0.3) (layers F.Cu F.Paste F.Mask) (roundrect_rratio 0.25)\n      (net 1 v3v3))\n    (pad 11 smd roundrect (at -4.1625 2.25 315) (size 1.475 0.3) (layers F.Cu F.Paste F.Mask) (roundrect_rratio 0.25)\n      (net 2 gnd))\n    (pad 12 smd roundrect (at -4.1625 2.75 315) (size 1.475 0.3) (layers F.Cu F.Paste F.Mask) (roundrect_rratio 0.25)\n      (net 9 light_0.control_0))\n    (pad 13 smd roundrect (at -2.75 4.1625 315) (size 0.3 1.475) (layers F.Cu F.Paste F.Mask) (roundrect_rratio 0.25)\n      (net 8 rgb2.blue))\n    (pad 14 smd roundrect (at -2.25 4.1625 315) (size 0.3 1.475) (layers F.Cu F.Paste F.Mask) (roundrect_rratio 0.25)\n      (net 1 v3v3))\n    (pad 15 smd roundrect (at -1.75 4.1625 315) (size 0.3 1.475) (layers F.Cu F.Paste F.Mask) (roundrect_rratio 0.25)\n      (net 24 rgb2.green))\n    (pad 16 smd roundrect (at -1.25 4.1625 315) (size 0.3 1.475) (layers F.Cu F.Paste F.Mask) (roundrect_rratio 0.25)\n      (net 1 v3v3))\n    (pad 17 smd roundrect (at -0.75 4.1625 315) (size 0.3 1.475) (layers F.Cu F.Paste F.Mask) (roundrect_rratio 0.25)\n      (net 2 gnd))\n    (pad 18 smd roundrect (at -0.25 4.1625 315) (size 0.3 1.475) (layers F.Cu F.Paste F.Mask) (roundrect_rratio 0.25)\n      (net 13 mcu.digital_16))\n    (pad 19 smd roundrect (at 0.25 4.1625 315) (size 0.3 1.475) (layers F.Cu F.Paste F.Mask) (roundrect_rratio 0.25))\n    (pad 20 smd roundrect (at 0.75 4.1625 315) (size 0.3 1.475) (layers F.Cu F.Paste F.Mask) (roundrect_rratio 0.25)\n      (net 2 gnd))\n    (pad 21 smd roundrect (at 1.25 4.1625 315) (size 0.3 1.475) (layers F.Cu F.Paste F.Mask) (roundrect_rratio 0.25)\n      (net 25 vsense.center))\n    (pad 22 smd roundrect (at 1.75 4.1625 315) (size 0.3 1.475) (layers F.Cu F.Paste F.Mask) (roundrect_rratio 0.25)\n      (net 26 mcu.digital_17))\n    (pad 23 smd roundrect (at 2.25 4.1625 315) (size 0.3 1.475) (layers F.Cu F.Paste F.Mask) (roundrect_rratio 0.25)\n      (net 14 mcu.digital_18))\n    (pad 24 smd roundrect (at 2.75 4.1625 315) (size 0.3 1.475) (layers F.Cu F.Paste F.Mask) (roundrect_rratio 0.25))\n    (pad 25 smd roundrect (at 4.1625 2.75 315) (size 1.475 0.3) (layers F.Cu F.Paste F.Mask) (roundrect_rratio 0.25)\n      (net 6 crystal.crystal.b))\n    (pad 26 smd roundrect (at 4.1625 2.25 315) (size 1.475 0.3) (layers F.Cu F.Paste F.Mask) (roundrect_rratio 0.25)\n      (net 5 mcu.xtal.xtal_in))\n    (pad 27 smd roundrect (at 4.1625 1.75 315) (size 1.475 0.3) (layers F.Cu F.Paste F.Mask) (roundrect_rratio 0.25)\n      (net 1 v3v3))\n    (pad 28 smd roundrect (at 4.1625 1.25 315) (size 1.475 0.3) (layers F.Cu F.Paste F.Mask) (roundrect_rratio 0.25)\n      (net 12 rgb1.red))\n    (pad 29 smd roundrect (at 4.1625 0.75 315) (size 1.475 0.3) (layers F.Cu F.Paste F.Mask) (roundrect_rratio 0.25)\n      (net 27 mcu.swd.swclk))\n    (pad 30 smd roundrect (at 4.1625 0.25 315) (size 1.475 0.3) (layers F.Cu F.Paste F.Mask) (roundrect_rratio 0.25)\n      (net 1 v3v3))\n    (pad 31 smd roundrect (at 4.1625 -0.25 315) (size 1.475 0.3) (layers F.Cu F.Paste F.Mask) (roundrect_rratio 0.25))\n    (pad 32 smd roundrect (at 4.1625 -0.75 315) (size 1.475 0.3) (layers F.Cu F.Paste F.Mask) (roundrect_rratio 0.25))\n    (pad 33 smd roundrect (at 4.1625 -1.25 315) (size 1.475 0.3) (layers F.Cu F.Paste F.Mask) (roundrect_rratio 0.25)\n      (net 28 mcu.swd.swdio))\n    (pad 34 smd roundrect (at 4.1625 -1.75 315) (size 1.475 0.3) (layers F.Cu F.Paste F.Mask) (roundrect_rratio 0.25)\n      (net 29 mcu.swd.reset))\n    (pad 35 smd roundrect (at 4.1625 -2.25 315) (size 1.475 0.3) (layers F.Cu F.Paste F.Mask) (roundrect_rratio 0.25))\n    (pad 36 smd roundrect (at 4.1625 -2.75 315) (size 1.475 0.3) (layers F.Cu F.Paste F.Mask) (roundrect_rratio 0.25))\n    (pad 37 smd roundrect (at 2.75 -4.1625 315) (size 0.3 1.475) (layers F.Cu F.Paste F.Mask) (roundrect_rratio 0.25))\n    (pad 38 smd roundrect (at 2.25 -4.1625 315) (size 0.3 1.475) (layers F.Cu F.Paste F.Mask) (roundrect_rratio 0.25))\n    (pad 39 smd roundrect (at 1.75 -4.1625 315) (size 0.3 1.475) (layers F.Cu F.Paste F.Mask) (roundrect_rratio 0.25)\n      (net 1 v3v3))\n    (pad 40 smd roundrect (at 1.25 -4.1625 315) (size 0.3 1.475) (layers F.Cu F.Paste F.Mask) (roundrect_rratio 0.25)\n      (net 2 gnd))\n    (pad 41 smd roundrect (at 0.75 -4.1625 315) (size 0.3 1.475) (layers F.Cu F.Paste F.Mask) (roundrect_rratio 0.25)\n      (net 2 gnd))\n    (pad 42 smd roundrect (at 0.25 -4.1625 315) (size 0.3 1.475) (layers F.Cu F.Paste F.Mask) (roundrect_rratio 0.25)\n      (net 1 v3v3))\n    (pad 43 smd roundrect (at -0.25 -4.1625 315) (size 0.3 1.475) (layers F.Cu F.Paste F.Mask) (roundrect_rratio 0.25)\n      (net 4 can.controller.txd))\n    (pad 44 smd roundrect (at -0.75 -4.1625 315) (size 0.3 1.475) (layers F.Cu F.Paste F.Mask) (roundrect_rratio 0.25)\n      (net 3 mcu.can_0.rxd))\n    (pad 45 smd roundrect (at -1.25 -4.1625 315) (size 0.3 1.475) (layers F.Cu F.Paste F.Mask) (roundrect_rratio 0.25)\n      (net 11 light_5.control_1))\n    (pad 46 smd roundrect (at -1.75 -4.1625 315) (size 0.3 1.475) (layers F.Cu F.Paste F.Mask) (roundrect_rratio 0.25)\n      (net 22 mcu.digital_3))\n    (pad 47 smd roundrect (at -2.25 -4.1625 315) (size 0.3 1.475) (layers F.Cu F.Paste F.Mask) (roundrect_rratio 0.25)\n      (net 21 light_4.control_1))\n    (pad 48 smd roundrect (at -2.75 -4.1625 315) (size 0.3 1.475) (layers F.Cu F.Paste F.Mask) (roundrect_rratio 0.25)\n      (net 20 mcu.digital_5))\n    (model ${KISYS3DMOD}/Package_QFP.3dshapes/LQFP-48_7x7mm_P0.5mm.wrl\n      (at (xyz 0 0 0))\n      (scale (xyz 1 1 1))\n      (rotate (xyz 0 0 0))\n    )\n  )\n\n  (module Resistor_SMD:R_0603_1608Metric (layer B.Cu) (tedit 5B301BBD) (tstamp 5D5FC2E0)\n    (at 160 108 180)\n    (descr "Resistor SMD 0603 (1608 Metric), square (rectangular) end terminal, IPC_7351 nominal, (Body size source: http://www.tortai-tech.com/upload/download/2011102023233369053.pdf), generated with kicad-footprint-generator")\n    (tags resistor)\n    (path /mcu/reset_pull)\n    (attr smd)\n    (fp_text reference mcu.reset_pull (at 0 1.43 180) (layer B.SilkS)\n      (effects (font (size 0.5 0.5) (thickness 0.08)) (justify mirror))\n    )\n    (fp_text value "10k, 1%, 0.1W" (at 0 -1.43 180) (layer B.Fab)\n      (effects (font (size 0.5 0.5) (thickness 0.08)) (justify mirror))\n    )\n    (fp_line (start -0.8 -0.4) (end -0.8 0.4) (layer B.Fab) (width 0.1))\n    (fp_line (start -0.8 0.4) (end 0.8 0.4) (layer B.Fab) (width 0.1))\n    (fp_line (start 0.8 0.4) (end 0.8 -0.4) (layer B.Fab) (width 0.1))\n    (fp_line (start 0.8 -0.4) (end -0.8 -0.4) (layer B.Fab) (width 0.1))\n    (fp_line (start -0.162779 0.51) (end 0.162779 0.51) (layer B.SilkS) (width 0.12))\n    (fp_line (start -0.162779 -0.51) (end 0.162779 -0.51) (layer B.SilkS) (width 0.12))\n    (fp_line (start -1.48 -0.73) (end -1.48 0.73) (layer B.CrtYd) (width 0.05))\n    (fp_line (start -1.48 0.73) (end 1.48 0.73) (layer B.CrtYd) (width 0.05))\n    (fp_line (start 1.48 0.73) (end 1.48 -0.73) (layer B.CrtYd) (width 0.05))\n    (fp_line (start 1.48 -0.73) (end -1.48 -0.73) (layer B.CrtYd) (width 0.05))\n    (fp_text user %R (at 0 0 180) (layer B.Fab)\n      (effects (font (size 0.5 0.5) (thickness 0.08)) (justify mirror))\n    )\n    (pad 1 smd roundrect (at -0.7875 0 180) (size 0.875 0.95) (layers B.Cu B.Paste B.Mask) (roundrect_rratio 0.25)\n      (net 1 v3v3))\n    (pad 2 smd roundrect (at 0.7875 0 180) (size 0.875 0.95) (layers B.Cu B.Paste B.Mask) (roundrect_rratio 0.25)\n      (net 29 mcu.swd.reset))\n    (model ${KISYS3DMOD}/Resistor_SMD.3dshapes/R_0603_1608Metric.wrl\n      (at (xyz 0 0 0))\n      (scale (xyz 1 1 1))\n      (rotate (xyz 0 0 0))\n    )\n  )\n\n  (module Resistor_SMD:R_0603_1608Metric (layer B.Cu) (tedit 5B301BBD) (tstamp 5D6F472A)\n    (at 160 110 180)\n    (descr "Resistor SMD 0603 (1608 Metric), square (rectangular) end terminal, IPC_7351 nominal, (Body size source: http://www.tortai-tech.com/upload/download/2011102023233369053.pdf), generated with kicad-footprint-generator")\n    (tags resistor)\n    (path /mcu/swclk_pull)\n    (attr smd)\n    (fp_text reference mcu.swclk_pull (at 0 -1 180) (layer B.SilkS)\n      (effects (font (size 0.5 0.5) (thickness 0.08)) (justify mirror))\n    )\n    (fp_text value "10k, 1%, 0.1W" (at 0 -1.43 180) (layer B.Fab)\n      (effects (font (size 0.5 0.5) (thickness 0.08)) (justify mirror))\n    )\n    (fp_line (start -0.8 -0.4) (end -0.8 0.4) (layer B.Fab) (width 0.1))\n    (fp_line (start -0.8 0.4) (end 0.8 0.4) (layer B.Fab) (width 0.1))\n    (fp_line (start 0.8 0.4) (end 0.8 -0.4) (layer B.Fab) (width 0.1))\n    (fp_line (start 0.8 -0.4) (end -0.8 -0.4) (layer B.Fab) (width 0.1))\n    (fp_line (start -0.162779 0.51) (end 0.162779 0.51) (layer B.SilkS) (width 0.12))\n    (fp_line (start -0.162779 -0.51) (end 0.162779 -0.51) (layer B.SilkS) (width 0.12))\n    (fp_line (start -1.48 -0.73) (end -1.48 0.73) (layer B.CrtYd) (width 0.05))\n    (fp_line (start -1.48 0.73) (end 1.48 0.73) (layer B.CrtYd) (width 0.05))\n    (fp_line (start 1.48 0.73) (end 1.48 -0.73) (layer B.CrtYd) (width 0.05))\n    (fp_line (start 1.48 -0.73) (end -1.48 -0.73) (layer B.CrtYd) (width 0.05))\n    (fp_text user %R (at 0 0 180) (layer B.Fab)\n      (effects (font (size 0.5 0.5) (thickness 0.08)) (justify mirror))\n    )\n    (pad 1 smd roundrect (at -0.7875 0 180) (size 0.875 0.95) (layers B.Cu B.Paste B.Mask) (roundrect_rratio 0.25)\n      (net 2 gnd))\n    (pad 2 smd roundrect (at 0.7875 0 180) (size 0.875 0.95) (layers B.Cu B.Paste B.Mask) (roundrect_rratio 0.25)\n      (net 27 mcu.swd.swclk))\n    (model ${KISYS3DMOD}/Resistor_SMD.3dshapes/R_0603_1608Metric.wrl\n      (at (xyz 0 0 0))\n      (scale (xyz 1 1 1))\n      (rotate (xyz 0 0 0))\n    )\n  )\n\n  (module Resistor_SMD:R_0603_1608Metric (layer B.Cu) (tedit 5B301BBD) (tstamp 5D6F46FA)\n    (at 160 112 180)\n    (descr "Resistor SMD 0603 (1608 Metric), square (rectangular) end terminal, IPC_7351 nominal, (Body size source: http://www.tortai-tech.com/upload/download/2011102023233369053.pdf), generated with kicad-footprint-generator")\n    (tags resistor)\n    (path /mcu/swdio_pull)\n    (attr smd)\n    (fp_text reference mcu.swdio_pull (at 0 -1) (layer B.SilkS)\n      (effects (font (size 0.5 0.5) (thickness 0.08)) (justify mirror))\n    )\n    (fp_text value "10k, 1%, 0.1W" (at 0 -1.43) (layer B.Fab)\n      (effects (font (size 0.5 0.5) (thickness 0.08)) (justify mirror))\n    )\n    (fp_text user %R (at 0 0) (layer B.Fab)\n      (effects (font (size 0.5 0.5) (thickness 0.08)) (justify mirror))\n    )\n    (fp_line (start 1.48 -0.73) (end -1.48 -0.73) (layer B.CrtYd) (width 0.05))\n    (fp_line (start 1.48 0.73) (end 1.48 -0.73) (layer B.CrtYd) (width 0.05))\n    (fp_line (start -1.48 0.73) (end 1.48 0.73) (layer B.CrtYd) (width 0.05))\n    (fp_line (start -1.48 -0.73) (end -1.48 0.73) (layer B.CrtYd) (width 0.05))\n    (fp_line (start -0.162779 -0.51) (end 0.162779 -0.51) (layer B.SilkS) (width 0.12))\n    (fp_line (start -0.162779 0.51) (end 0.162779 0.51) (layer B.SilkS) (width 0.12))\n    (fp_line (start 0.8 -0.4) (end -0.8 -0.4) (layer B.Fab) (width 0.1))\n    (fp_line (start 0.8 0.4) (end 0.8 -0.4) (layer B.Fab) (width 0.1))\n    (fp_line (start -0.8 0.4) (end 0.8 0.4) (layer B.Fab) (width 0.1))\n    (fp_line (start -0.8 -0.4) (end -0.8 0.4) (layer B.Fab) (width 0.1))\n    (pad 2 smd roundrect (at 0.7875 0 180) (size 0.875 0.95) (layers B.Cu B.Paste B.Mask) (roundrect_rratio 0.25)\n      (net 28 mcu.swd.swdio))\n    (pad 1 smd roundrect (at -0.7875 0 180) (size 0.875 0.95) (layers B.Cu B.Paste B.Mask) (roundrect_rratio 0.25)\n      (net 1 v3v3))\n    (model ${KISYS3DMOD}/Resistor_SMD.3dshapes/R_0603_1608Metric.wrl\n      (at (xyz 0 0 0))\n      (scale (xyz 1 1 1))\n      (rotate (xyz 0 0 0))\n    )\n  )\n\n  (module Capacitor_SMD:C_0603_1608Metric (layer B.Cu) (tedit 5B301BBE) (tstamp 5D6F46CA)\n    (at 147.828427 112.828427 135)\n    (descr "Capacitor SMD 0603 (1608 Metric), square (rectangular) end terminal, IPC_7351 nominal, (Body size source: http://www.tortai-tech.com/upload/download/2011102023233369053.pdf), generated with kicad-footprint-generator")\n    (tags capacitor)\n    (path /mcu/vbat_cap)\n    (attr smd)\n    (fp_text reference mcu.vbat_cap (at -1.5 0 45) (layer B.SilkS)\n      (effects (font (size 0.5 0.5) (thickness 0.08)) (justify mirror))\n    )\n    (fp_text value "0.1\xc2\xb5F, 50V, CL10B104KB8NNNC" (at 0 -1.43 -45) (layer B.Fab)\n      (effects (font (size 0.5 0.5) (thickness 0.08)) (justify mirror))\n    )\n    (fp_text user %R (at 0 0 -45) (layer B.Fab)\n      (effects (font (size 0.5 0.5) (thickness 0.08)) (justify mirror))\n    )\n    (fp_line (start 1.48 -0.73) (end -1.48 -0.73) (layer B.CrtYd) (width 0.05))\n    (fp_line (start 1.48 0.73) (end 1.48 -0.73) (layer B.CrtYd) (width 0.05))\n    (fp_line (start -1.48 0.73) (end 1.48 0.73) (layer B.CrtYd) (width 0.05))\n    (fp_line (start -1.48 -0.73) (end -1.48 0.73) (layer B.CrtYd) (width 0.05))\n    (fp_line (start -0.162779 -0.51) (end 0.162779 -0.51) (layer B.SilkS) (width 0.12))\n    (fp_line (start -0.162779 0.51) (end 0.162779 0.51) (layer B.SilkS) (width 0.12))\n    (fp_line (start 0.8 -0.4) (end -0.8 -0.4) (layer B.Fab) (width 0.1))\n    (fp_line (start 0.8 0.4) (end 0.8 -0.4) (layer B.Fab) (width 0.1))\n    (fp_line (start -0.8 0.4) (end 0.8 0.4) (layer B.Fab) (width 0.1))\n    (fp_line (start -0.8 -0.4) (end -0.8 0.4) (layer B.Fab) (width 0.1))\n    (pad 2 smd roundrect (at 0.7875 0 135) (size 0.875 0.95) (layers B.Cu B.Paste B.Mask) (roundrect_rratio 0.25)\n      (net 2 gnd))\n    (pad 1 smd roundrect (at -0.7875 0 135) (size 0.875 0.95) (layers B.Cu B.Paste B.Mask) (roundrect_rratio 0.25)\n      (net 1 v3v3))\n    (model ${KISYS3DMOD}/Capacitor_SMD.3dshapes/C_0603_1608Metric.wrl\n      (at (xyz 0 0 0))\n      (scale (xyz 1 1 1))\n      (rotate (xyz 0 0 0))\n    )\n  )\n\n  (module Capacitor_SMD:C_0603_1608Metric (layer B.Cu) (tedit 5B301BBE) (tstamp 5D6F469A)\n    (at 144.292893 114.949747 45)\n    (descr "Capacitor SMD 0603 (1608 Metric), square (rectangular) end terminal, IPC_7351 nominal, (Body size source: http://www.tortai-tech.com/upload/download/2011102023233369053.pdf), generated with kicad-footprint-generator")\n    (tags capacitor)\n    (path /mcu/pwr_cap_0)\n    (attr smd)\n    (fp_text reference mcu.pwr_cap_0 (at 0 1 45) (layer B.SilkS)\n      (effects (font (size 0.5 0.5) (thickness 0.08)) (justify mirror))\n    )\n    (fp_text value "0.1\xc2\xb5F, 50V, CL10B104KB8NNNC" (at 0 -1.43 45) (layer B.Fab)\n      (effects (font (size 0.5 0.5) (thickness 0.08)) (justify mirror))\n    )\n    (fp_line (start -0.8 -0.4) (end -0.8 0.4) (layer B.Fab) (width 0.1))\n    (fp_line (start -0.8 0.4) (end 0.8 0.4) (layer B.Fab) (width 0.1))\n    (fp_line (start 0.8 0.4) (end 0.8 -0.4) (layer B.Fab) (width 0.1))\n    (fp_line (start 0.8 -0.4) (end -0.8 -0.4) (layer B.Fab) (width 0.1))\n    (fp_line (start -0.162779 0.51) (end 0.162779 0.51) (layer B.SilkS) (width 0.12))\n    (fp_line (start -0.162779 -0.51) (end 0.162779 -0.51) (layer B.SilkS) (width 0.12))\n    (fp_line (start -1.48 -0.73) (end -1.48 0.73) (layer B.CrtYd) (width 0.05))\n    (fp_line (start -1.48 0.73) (end 1.48 0.73) (layer B.CrtYd) (width 0.05))\n    (fp_line (start 1.48 0.73) (end 1.48 -0.73) (layer B.CrtYd) (width 0.05))\n    (fp_line (start 1.48 -0.73) (end -1.48 -0.73) (layer B.CrtYd) (width 0.05))\n    (fp_text user %R (at 0 0 45) (layer B.Fab)\n      (effects (font (size 0.5 0.5) (thickness 0.08)) (justify mirror))\n    )\n    (pad 1 smd roundrect (at -0.7875 0 45) (size 0.875 0.95) (layers B.Cu B.Paste B.Mask) (roundrect_rratio 0.25)\n      (net 1 v3v3))\n    (pad 2 smd roundrect (at 0.7875 0 45) (size 0.875 0.95) (layers B.Cu B.Paste B.Mask) (roundrect_rratio 0.25)\n      (net 2 gnd))\n    (model ${KISYS3DMOD}/Capacitor_SMD.3dshapes/C_0603_1608Metric.wrl\n      (at (xyz 0 0 0))\n      (scale (xyz 1 1 1))\n      (rotate (xyz 0 0 0))\n    )\n  )\n\n  (module Capacitor_SMD:C_0603_1608Metric (layer B.Cu) (tedit 5B301BBE) (tstamp 5D6F440C)\n    (at 142.87868 113.535534 45)\n    (descr "Capacitor SMD 0603 (1608 Metric), square (rectangular) end terminal, IPC_7351 nominal, (Body size source: http://www.tortai-tech.com/upload/download/2011102023233369053.pdf), generated with kicad-footprint-generator")\n    (tags capacitor)\n    (path /mcu/pwr_cap_1)\n    (attr smd)\n    (fp_text reference mcu.pwr_cap_1 (at 0 1 45) (layer B.SilkS)\n      (effects (font (size 0.5 0.5) (thickness 0.08)) (justify mirror))\n    )\n    (fp_text value "10000pF, 50V, CL10B103KB8NNNC" (at 0 -1.43 45) (layer B.Fab)\n      (effects (font (size 0.5 0.5) (thickness 0.08)) (justify mirror))\n    )\n    (fp_text user %R (at 0 0 45) (layer B.Fab)\n      (effects (font (size 0.5 0.5) (thickness 0.08)) (justify mirror))\n    )\n    (fp_line (start 1.48 -0.73) (end -1.48 -0.73) (layer B.CrtYd) (width 0.05))\n    (fp_line (start 1.48 0.73) (end 1.48 -0.73) (layer B.CrtYd) (width 0.05))\n    (fp_line (start -1.48 0.73) (end 1.48 0.73) (layer B.CrtYd) (width 0.05))\n    (fp_line (start -1.48 -0.73) (end -1.48 0.73) (layer B.CrtYd) (width 0.05))\n    (fp_line (start -0.162779 -0.51) (end 0.162779 -0.51) (layer B.SilkS) (width 0.12))\n    (fp_line (start -0.162779 0.51) (end 0.162779 0.51) (layer B.SilkS) (width 0.12))\n    (fp_line (start 0.8 -0.4) (end -0.8 -0.4) (layer B.Fab) (width 0.1))\n    (fp_line (start 0.8 0.4) (end 0.8 -0.4) (layer B.Fab) (width 0.1))\n    (fp_line (start -0.8 0.4) (end 0.8 0.4) (layer B.Fab) (width 0.1))\n    (fp_line (start -0.8 -0.4) (end -0.8 0.4) (layer B.Fab) (width 0.1))\n    (pad 2 smd roundrect (at 0.7875 0 45) (size 0.875 0.95) (layers B.Cu B.Paste B.Mask) (roundrect_rratio 0.25)\n      (net 2 gnd))\n    (pad 1 smd roundrect (at -0.7875 0 45) (size 0.875 0.95) (layers B.Cu B.Paste B.Mask) (roundrect_rratio 0.25)\n      (net 1 v3v3))\n    (model ${KISYS3DMOD}/Capacitor_SMD.3dshapes/C_0603_1608Metric.wrl\n      (at (xyz 0 0 0))\n      (scale (xyz 1 1 1))\n      (rotate (xyz 0 0 0))\n    )\n  )\n\n  (module Capacitor_SMD:C_0603_1608Metric (layer B.Cu) (tedit 5B301BBE) (tstamp 5D6F452C)\n    (at 149.949747 109.292893 225)\n    (descr "Capacitor SMD 0603 (1608 Metric), square (rectangular) end terminal, IPC_7351 nominal, (Body size source: http://www.tortai-tech.com/upload/download/2011102023233369053.pdf), generated with kicad-footprint-generator")\n    (tags capacitor)\n    (path /mcu/pwr_cap_2)\n    (attr smd)\n    (fp_text reference mcu.pwr_cap_2 (at 0 -1 225) (layer B.SilkS)\n      (effects (font (size 0.5 0.5) (thickness 0.08)) (justify mirror))\n    )\n    (fp_text value "0.1\xc2\xb5F, 50V, CL10B104KB8NNNC" (at 0 -1.43 225) (layer B.Fab)\n      (effects (font (size 0.5 0.5) (thickness 0.08)) (justify mirror))\n    )\n    (fp_line (start -0.8 -0.4) (end -0.8 0.4) (layer B.Fab) (width 0.1))\n    (fp_line (start -0.8 0.4) (end 0.8 0.4) (layer B.Fab) (width 0.1))\n    (fp_line (start 0.8 0.4) (end 0.8 -0.4) (layer B.Fab) (width 0.1))\n    (fp_line (start 0.8 -0.4) (end -0.8 -0.4) (layer B.Fab) (width 0.1))\n    (fp_line (start -0.162779 0.51) (end 0.162779 0.51) (layer B.SilkS) (width 0.12))\n    (fp_line (start -0.162779 -0.51) (end 0.162779 -0.51) (layer B.SilkS) (width 0.12))\n    (fp_line (start -1.48 -0.73) (end -1.48 0.73) (layer B.CrtYd) (width 0.05))\n    (fp_line (start -1.48 0.73) (end 1.48 0.73) (layer B.CrtYd) (width 0.05))\n    (fp_line (start 1.48 0.73) (end 1.48 -0.73) (layer B.CrtYd) (width 0.05))\n    (fp_line (start 1.48 -0.73) (end -1.48 -0.73) (layer B.CrtYd) (width 0.05))\n    (fp_text user %R (at 0 0 225) (layer B.Fab)\n      (effects (font (size 0.5 0.5) (thickness 0.08)) (justify mirror))\n    )\n    (pad 1 smd roundrect (at -0.7875 0 225) (size 0.875 0.95) (layers B.Cu B.Paste B.Mask) (roundrect_rratio 0.25)\n      (net 1 v3v3))\n    (pad 2 smd roundrect (at 0.7875 0 225) (size 0.875 0.95) (layers B.Cu B.Paste B.Mask) (roundrect_rratio 0.25)\n      (net 2 gnd))\n    (model ${KISYS3DMOD}/Capacitor_SMD.3dshapes/C_0603_1608Metric.wrl\n      (at (xyz 0 0 0))\n      (scale (xyz 1 1 1))\n      (rotate (xyz 0 0 0))\n    )\n  )\n\n  (module Capacitor_SMD:C_0603_1608Metric (layer B.Cu) (tedit 5B301BBE) (tstamp 5D6F443C)\n    (at 148.535534 107.87868 225)\n    (descr "Capacitor SMD 0603 (1608 Metric), square (rectangular) end terminal, IPC_7351 nominal, (Body size source: http://www.tortai-tech.com/upload/download/2011102023233369053.pdf), generated with kicad-footprint-generator")\n    (tags capacitor)\n    (path /mcu/pwr_cap_3)\n    (attr smd)\n    (fp_text reference mcu.pwr_cap_3 (at 0 -1 225) (layer B.SilkS)\n      (effects (font (size 0.5 0.5) (thickness 0.08)) (justify mirror))\n    )\n    (fp_text value "10000pF, 50V, CL10B103KB8NNNC" (at 0 -1.43 225) (layer B.Fab)\n      (effects (font (size 0.5 0.5) (thickness 0.08)) (justify mirror))\n    )\n    (fp_text user %R (at 0 0 225) (layer B.Fab)\n      (effects (font (size 0.5 0.5) (thickness 0.08)) (justify mirror))\n    )\n    (fp_line (start 1.48 -0.73) (end -1.48 -0.73) (layer B.CrtYd) (width 0.05))\n    (fp_line (start 1.48 0.73) (end 1.48 -0.73) (layer B.CrtYd) (width 0.05))\n    (fp_line (start -1.48 0.73) (end 1.48 0.73) (layer B.CrtYd) (width 0.05))\n    (fp_line (start -1.48 -0.73) (end -1.48 0.73) (layer B.CrtYd) (width 0.05))\n    (fp_line (start -0.162779 -0.51) (end 0.162779 -0.51) (layer B.SilkS) (width 0.12))\n    (fp_line (start -0.162779 0.51) (end 0.162779 0.51) (layer B.SilkS) (width 0.12))\n    (fp_line (start 0.8 -0.4) (end -0.8 -0.4) (layer B.Fab) (width 0.1))\n    (fp_line (start 0.8 0.4) (end 0.8 -0.4) (layer B.Fab) (width 0.1))\n    (fp_line (start -0.8 0.4) (end 0.8 0.4) (layer B.Fab) (width 0.1))\n    (fp_line (start -0.8 -0.4) (end -0.8 0.4) (layer B.Fab) (width 0.1))\n    (pad 2 smd roundrect (at 0.7875 0 225) (size 0.875 0.95) (layers B.Cu B.Paste B.Mask) (roundrect_rratio 0.25)\n      (net 2 gnd))\n    (pad 1 smd roundrect (at -0.7875 0 225) (size 0.875 0.95) (layers B.Cu B.Paste B.Mask) (roundrect_rratio 0.25)\n      (net 1 v3v3))\n    (model ${KISYS3DMOD}/Capacitor_SMD.3dshapes/C_0603_1608Metric.wrl\n      (at (xyz 0 0 0))\n      (scale (xyz 1 1 1))\n      (rotate (xyz 0 0 0))\n    )\n  )\n\n  (module Capacitor_SMD:C_0603_1608Metric (layer B.Cu) (tedit 5B301BBE) (tstamp 5D6F44FC)\n    (at 145.707107 105.050253 225)\n    (descr "Capacitor SMD 0603 (1608 Metric), square (rectangular) end terminal, IPC_7351 nominal, (Body size source: http://www.tortai-tech.com/upload/download/2011102023233369053.pdf), generated with kicad-footprint-generator")\n    (tags capacitor)\n    (path /mcu/pwr_cap_4)\n    (attr smd)\n    (fp_text reference mcu.pwr_cap_4 (at 0 1 225) (layer B.SilkS)\n      (effects (font (size 0.5 0.5) (thickness 0.08)) (justify mirror))\n    )\n    (fp_text value "0.1\xc2\xb5F, 50V, CL10B104KB8NNNC" (at 0 -1.43 225) (layer B.Fab)\n      (effects (font (size 0.5 0.5) (thickness 0.08)) (justify mirror))\n    )\n    (fp_line (start -0.8 -0.4) (end -0.8 0.4) (layer B.Fab) (width 0.1))\n    (fp_line (start -0.8 0.4) (end 0.8 0.4) (layer B.Fab) (width 0.1))\n    (fp_line (start 0.8 0.4) (end 0.8 -0.4) (layer B.Fab) (width 0.1))\n    (fp_line (start 0.8 -0.4) (end -0.8 -0.4) (layer B.Fab) (width 0.1))\n    (fp_line (start -0.162779 0.51) (end 0.162779 0.51) (layer B.SilkS) (width 0.12))\n    (fp_line (start -0.162779 -0.51) (end 0.162779 -0.51) (layer B.SilkS) (width 0.12))\n    (fp_line (start -1.48 -0.73) (end -1.48 0.73) (layer B.CrtYd) (width 0.05))\n    (fp_line (start -1.48 0.73) (end 1.48 0.73) (layer B.CrtYd) (width 0.05))\n    (fp_line (start 1.48 0.73) (end 1.48 -0.73) (layer B.CrtYd) (width 0.05))\n    (fp_line (start 1.48 -0.73) (end -1.48 -0.73) (layer B.CrtYd) (width 0.05))\n    (fp_text user %R (at 0 0 225) (layer B.Fab)\n      (effects (font (size 0.5 0.5) (thickness 0.08)) (justify mirror))\n    )\n    (pad 1 smd roundrect (at -0.7875 0 225) (size 0.875 0.95) (layers B.Cu B.Paste B.Mask) (roundrect_rratio 0.25)\n      (net 1 v3v3))\n    (pad 2 smd roundrect (at 0.7875 0 225) (size 0.875 0.95) (layers B.Cu B.Paste B.Mask) (roundrect_rratio 0.25)\n      (net 2 gnd))\n    (model ${KISYS3DMOD}/Capacitor_SMD.3dshapes/C_0603_1608Metric.wrl\n      (at (xyz 0 0 0))\n      (scale (xyz 1 1 1))\n      (rotate (xyz 0 0 0))\n    )\n  )\n\n  (module Capacitor_SMD:C_0603_1608Metric (layer B.Cu) (tedit 5B301BBE) (tstamp 5D6F478A)\n    (at 147.12132 106.464466 225)\n    (descr "Capacitor SMD 0603 (1608 Metric), square (rectangular) end terminal, IPC_7351 nominal, (Body size source: http://www.tortai-tech.com/upload/download/2011102023233369053.pdf), generated with kicad-footprint-generator")\n    (tags capacitor)\n    (path /mcu/pwr_cap_5)\n    (attr smd)\n    (fp_text reference mcu.pwr_cap_5 (at 0 1 225) (layer B.SilkS)\n      (effects (font (size 0.5 0.5) (thickness 0.08)) (justify mirror))\n    )\n    (fp_text value "10000pF, 50V, CL10B103KB8NNNC" (at 0 -1.43 225) (layer B.Fab)\n      (effects (font (size 0.5 0.5) (thickness 0.08)) (justify mirror))\n    )\n    (fp_text user %R (at 0 0 225) (layer B.Fab)\n      (effects (font (size 0.5 0.5) (thickness 0.08)) (justify mirror))\n    )\n    (fp_line (start 1.48 -0.73) (end -1.48 -0.73) (layer B.CrtYd) (width 0.05))\n    (fp_line (start 1.48 0.73) (end 1.48 -0.73) (layer B.CrtYd) (width 0.05))\n    (fp_line (start -1.48 0.73) (end 1.48 0.73) (layer B.CrtYd) (width 0.05))\n    (fp_line (start -1.48 -0.73) (end -1.48 0.73) (layer B.CrtYd) (width 0.05))\n    (fp_line (start -0.162779 -0.51) (end 0.162779 -0.51) (layer B.SilkS) (width 0.12))\n    (fp_line (start -0.162779 0.51) (end 0.162779 0.51) (layer B.SilkS) (width 0.12))\n    (fp_line (start 0.8 -0.4) (end -0.8 -0.4) (layer B.Fab) (width 0.1))\n    (fp_line (start 0.8 0.4) (end 0.8 -0.4) (layer B.Fab) (width 0.1))\n    (fp_line (start -0.8 0.4) (end 0.8 0.4) (layer B.Fab) (width 0.1))\n    (fp_line (start -0.8 -0.4) (end -0.8 0.4) (layer B.Fab) (width 0.1))\n    (pad 2 smd roundrect (at 0.7875 0 225) (size 0.875 0.95) (layers B.Cu B.Paste B.Mask) (roundrect_rratio 0.25)\n      (net 2 gnd))\n    (pad 1 smd roundrect (at -0.7875 0 225) (size 0.875 0.95) (layers B.Cu B.Paste B.Mask) (roundrect_rratio 0.25)\n      (net 1 v3v3))\n    (model ${KISYS3DMOD}/Capacitor_SMD.3dshapes/C_0603_1608Metric.wrl\n      (at (xyz 0 0 0))\n      (scale (xyz 1 1 1))\n      (rotate (xyz 0 0 0))\n    )\n  )\n\n  (module Capacitor_SMD:C_0603_1608Metric (layer B.Cu) (tedit 5B301BBE) (tstamp 5D6F44CC)\n    (at 141.464466 112.12132 45)\n    (descr "Capacitor SMD 0603 (1608 Metric), square (rectangular) end terminal, IPC_7351 nominal, (Body size source: http://www.tortai-tech.com/upload/download/2011102023233369053.pdf), generated with kicad-footprint-generator")\n    (tags capacitor)\n    (path /mcu/pwra_cap_0)\n    (attr smd)\n    (fp_text reference mcu.pwra_cap_0 (at 0 -1 45) (layer B.SilkS)\n      (effects (font (size 0.5 0.5) (thickness 0.08)) (justify mirror))\n    )\n    (fp_text value "0.1\xc2\xb5F, 50V, CL10B104KB8NNNC" (at 0 -1.43 45) (layer B.Fab)\n      (effects (font (size 0.5 0.5) (thickness 0.08)) (justify mirror))\n    )\n    (fp_line (start -0.8 -0.4) (end -0.8 0.4) (layer B.Fab) (width 0.1))\n    (fp_line (start -0.8 0.4) (end 0.8 0.4) (layer B.Fab) (width 0.1))\n    (fp_line (start 0.8 0.4) (end 0.8 -0.4) (layer B.Fab) (width 0.1))\n    (fp_line (start 0.8 -0.4) (end -0.8 -0.4) (layer B.Fab) (width 0.1))\n    (fp_line (start -0.162779 0.51) (end 0.162779 0.51) (layer B.SilkS) (width 0.12))\n    (fp_line (start -0.162779 -0.51) (end 0.162779 -0.51) (layer B.SilkS) (width 0.12))\n    (fp_line (start -1.48 -0.73) (end -1.48 0.73) (layer B.CrtYd) (width 0.05))\n    (fp_line (start -1.48 0.73) (end 1.48 0.73) (layer B.CrtYd) (width 0.05))\n    (fp_line (start 1.48 0.73) (end 1.48 -0.73) (layer B.CrtYd) (width 0.05))\n    (fp_line (start 1.48 -0.73) (end -1.48 -0.73) (layer B.CrtYd) (width 0.05))\n    (fp_text user %R (at 0 0 45) (layer B.Fab)\n      (effects (font (size 0.5 0.5) (thickness 0.08)) (justify mirror))\n    )\n    (pad 1 smd roundrect (at -0.7875 0 45) (size 0.875 0.95) (layers B.Cu B.Paste B.Mask) (roundrect_rratio 0.25)\n      (net 1 v3v3))\n    (pad 2 smd roundrect (at 0.7875 0 45) (size 0.875 0.95) (layers B.Cu B.Paste B.Mask) (roundrect_rratio 0.25)\n      (net 2 gnd))\n    (model ${KISYS3DMOD}/Capacitor_SMD.3dshapes/C_0603_1608Metric.wrl\n      (at (xyz 0 0 0))\n      (scale (xyz 1 1 1))\n      (rotate (xyz 0 0 0))\n    )\n  )\n\n  (module Capacitor_SMD:C_0603_1608Metric (layer B.Cu) (tedit 5B301BBE) (tstamp 5D6F446C)\n    (at 142.171573 107.171573 315)\n    (descr "Capacitor SMD 0603 (1608 Metric), square (rectangular) end terminal, IPC_7351 nominal, (Body size source: http://www.tortai-tech.com/upload/download/2011102023233369053.pdf), generated with kicad-footprint-generator")\n    (tags capacitor)\n    (path /mcu/vref_cap_0)\n    (attr smd)\n    (fp_text reference mcu.vref_cap_0 (at -2 0 45) (layer B.SilkS)\n      (effects (font (size 0.5 0.5) (thickness 0.08)) (justify mirror))\n    )\n    (fp_text value "0.1\xc2\xb5F, 50V, CL10B104KB8NNNC" (at 0 -1.43 315) (layer B.Fab)\n      (effects (font (size 0.5 0.5) (thickness 0.08)) (justify mirror))\n    )\n    (fp_line (start -0.8 -0.4) (end -0.8 0.4) (layer B.Fab) (width 0.1))\n    (fp_line (start -0.8 0.4) (end 0.8 0.4) (layer B.Fab) (width 0.1))\n    (fp_line (start 0.8 0.4) (end 0.8 -0.4) (layer B.Fab) (width 0.1))\n    (fp_line (start 0.8 -0.4) (end -0.8 -0.4) (layer B.Fab) (width 0.1))\n    (fp_line (start -0.162779 0.51) (end 0.162779 0.51) (layer B.SilkS) (width 0.12))\n    (fp_line (start -0.162779 -0.51) (end 0.162779 -0.51) (layer B.SilkS) (width 0.12))\n    (fp_line (start -1.48 -0.73) (end -1.48 0.73) (layer B.CrtYd) (width 0.05))\n    (fp_line (start -1.48 0.73) (end 1.48 0.73) (layer B.CrtYd) (width 0.05))\n    (fp_line (start 1.48 0.73) (end 1.48 -0.73) (layer B.CrtYd) (width 0.05))\n    (fp_line (start 1.48 -0.73) (end -1.48 -0.73) (layer B.CrtYd) (width 0.05))\n    (fp_text user %R (at 0 0 315) (layer B.Fab)\n      (effects (font (size 0.5 0.5) (thickness 0.08)) (justify mirror))\n    )\n    (pad 1 smd roundrect (at -0.7875 0 315) (size 0.875 0.95) (layers B.Cu B.Paste B.Mask) (roundrect_rratio 0.25)\n      (net 1 v3v3))\n    (pad 2 smd roundrect (at 0.7875 0 315) (size 0.875 0.95) (layers B.Cu B.Paste B.Mask) (roundrect_rratio 0.25)\n      (net 2 gnd))\n    (model ${KISYS3DMOD}/Capacitor_SMD.3dshapes/C_0603_1608Metric.wrl\n      (at (xyz 0 0 0))\n      (scale (xyz 1 1 1))\n      (rotate (xyz 0 0 0))\n    )\n  )\n\n  (module Capacitor_SMD:C_0603_1608Metric (layer B.Cu) (tedit 5B301BBE) (tstamp 5D6F475A)\n    (at 140.050253 110.707107 45)\n    (descr "Capacitor SMD 0603 (1608 Metric), square (rectangular) end terminal, IPC_7351 nominal, (Body size source: http://www.tortai-tech.com/upload/download/2011102023233369053.pdf), generated with kicad-footprint-generator")\n    (tags capacitor)\n    (path /mcu/vref_cap_1)\n    (attr smd)\n    (fp_text reference mcu.vref_cap_1 (at 0 -1 45) (layer B.SilkS)\n      (effects (font (size 0.5 0.5) (thickness 0.08)) (justify mirror))\n    )\n    (fp_text value "0.1\xc2\xb5F, 50V, CL10B104KB8NNNC" (at 0 -1.43 45) (layer B.Fab)\n      (effects (font (size 0.5 0.5) (thickness 0.08)) (justify mirror))\n    )\n    (fp_text user %R (at 0 0 45) (layer B.Fab)\n      (effects (font (size 0.5 0.5) (thickness 0.08)) (justify mirror))\n    )\n    (fp_line (start 1.48 -0.73) (end -1.48 -0.73) (layer B.CrtYd) (width 0.05))\n    (fp_line (start 1.48 0.73) (end 1.48 -0.73) (layer B.CrtYd) (width 0.05))\n    (fp_line (start -1.48 0.73) (end 1.48 0.73) (layer B.CrtYd) (width 0.05))\n    (fp_line (start -1.48 -0.73) (end -1.48 0.73) (layer B.CrtYd) (width 0.05))\n    (fp_line (start -0.162779 -0.51) (end 0.162779 -0.51) (layer B.SilkS) (width 0.12))\n    (fp_line (start -0.162779 0.51) (end 0.162779 0.51) (layer B.SilkS) (width 0.12))\n    (fp_line (start 0.8 -0.4) (end -0.8 -0.4) (layer B.Fab) (width 0.1))\n    (fp_line (start 0.8 0.4) (end 0.8 -0.4) (layer B.Fab) (width 0.1))\n    (fp_line (start -0.8 0.4) (end 0.8 0.4) (layer B.Fab) (width 0.1))\n    (fp_line (start -0.8 -0.4) (end -0.8 0.4) (layer B.Fab) (width 0.1))\n    (pad 2 smd roundrect (at 0.7875 0 45) (size 0.875 0.95) (layers B.Cu B.Paste B.Mask) (roundrect_rratio 0.25)\n      (net 2 gnd))\n    (pad 1 smd roundrect (at -0.7875 0 45) (size 0.875 0.95) (layers B.Cu B.Paste B.Mask) (roundrect_rratio 0.25)\n      (net 1 v3v3))\n    (model ${KISYS3DMOD}/Capacitor_SMD.3dshapes/C_0603_1608Metric.wrl\n      (at (xyz 0 0 0))\n      (scale (xyz 1 1 1))\n      (rotate (xyz 0 0 0))\n    )\n  )\n\n  (module Capacitor_SMD:C_0805_2012Metric (layer B.Cu) (tedit 5B36C52B) (tstamp 5D6FDD95)\n    (at 144.292893 109.292893 45)\n    (descr "Capacitor SMD 0805 (2012 Metric), square (rectangular) end terminal, IPC_7351 nominal, (Body size source: https://docs.google.com/spreadsheets/d/1BsfQQcO9C6DZCsRaXUlFlo91Tg2WpOkGARC1WS5S8t0/edit?usp=sharing), generated with kicad-footprint-generator")\n    (tags capacitor)\n    (path /mcu/pwra_cap_1)\n    (attr smd)\n    (fp_text reference mcu.pwra_cap_1 (at 0 1.65 45) (layer B.SilkS)\n      (effects (font (size 0.5 0.5) (thickness 0.08)) (justify mirror))\n    )\n    (fp_text value "10\xc2\xb5F, 10V, CL21A106KPFNNNE" (at 0 -1.65 45) (layer B.Fab)\n      (effects (font (size 0.5 0.5) (thickness 0.08)) (justify mirror))\n    )\n    (fp_text user %R (at 0 0 45) (layer B.Fab)\n      (effects (font (size 0.5 0.5) (thickness 0.08)) (justify mirror))\n    )\n    (fp_line (start 1.68 -0.95) (end -1.68 -0.95) (layer B.CrtYd) (width 0.05))\n    (fp_line (start 1.68 0.95) (end 1.68 -0.95) (layer B.CrtYd) (width 0.05))\n    (fp_line (start -1.68 0.95) (end 1.68 0.95) (layer B.CrtYd) (width 0.05))\n    (fp_line (start -1.68 -0.95) (end -1.68 0.95) (layer B.CrtYd) (width 0.05))\n    (fp_line (start -0.258578 -0.71) (end 0.258578 -0.71) (layer B.SilkS) (width 0.12))\n    (fp_line (start -0.258578 0.71) (end 0.258578 0.71) (layer B.SilkS) (width 0.12))\n    (fp_line (start 1 -0.6) (end -1 -0.6) (layer B.Fab) (width 0.1))\n    (fp_line (start 1 0.6) (end 1 -0.6) (layer B.Fab) (width 0.1))\n    (fp_line (start -1 0.6) (end 1 0.6) (layer B.Fab) (width 0.1))\n    (fp_line (start -1 -0.6) (end -1 0.6) (layer B.Fab) (width 0.1))\n    (pad 2 smd roundrect (at 0.9375 0 45) (size 0.975 1.4) (layers B.Cu B.Paste B.Mask) (roundrect_rratio 0.25)\n      (net 2 gnd))\n    (pad 1 smd roundrect (at -0.9375 0 45) (size 0.975 1.4) (layers B.Cu B.Paste B.Mask) (roundrect_rratio 0.25)\n      (net 1 v3v3))\n    (model ${KISYS3DMOD}/Capacitor_SMD.3dshapes/C_0805_2012Metric.wrl\n      (at (xyz 0 0 0))\n      (scale (xyz 1 1 1))\n      (rotate (xyz 0 0 0))\n    )\n  )\n\n  (module Capacitor_SMD:C_0805_2012Metric (layer B.Cu) (tedit 5B36C52B) (tstamp 5D6FDDA5)\n    (at 145.707107 110.707107 45)\n    (descr "Capacitor SMD 0805 (2012 Metric), square (rectangular) end terminal, IPC_7351 nominal, (Body size source: https://docs.google.com/spreadsheets/d/1BsfQQcO9C6DZCsRaXUlFlo91Tg2WpOkGARC1WS5S8t0/edit?usp=sharing), generated with kicad-footprint-generator")\n    (tags capacitor)\n    (path /mcu/vref_cap_2)\n    (attr smd)\n    (fp_text reference mcu.vref_cap_2 (at 0 1.65 45) (layer B.SilkS)\n      (effects (font (size 0.5 0.5) (thickness 0.08)) (justify mirror))\n    )\n    (fp_text value "10\xc2\xb5F, 10V, CL21A106KPFNNNE" (at 0 -1.65 45) (layer B.Fab)\n      (effects (font (size 0.5 0.5) (thickness 0.08)) (justify mirror))\n    )\n    (fp_line (start -1 -0.6) (end -1 0.6) (layer B.Fab) (width 0.1))\n    (fp_line (start -1 0.6) (end 1 0.6) (layer B.Fab) (width 0.1))\n    (fp_line (start 1 0.6) (end 1 -0.6) (layer B.Fab) (width 0.1))\n    (fp_line (start 1 -0.6) (end -1 -0.6) (layer B.Fab) (width 0.1))\n    (fp_line (start -0.258578 0.71) (end 0.258578 0.71) (layer B.SilkS) (width 0.12))\n    (fp_line (start -0.258578 -0.71) (end 0.258578 -0.71) (layer B.SilkS) (width 0.12))\n    (fp_line (start -1.68 -0.95) (end -1.68 0.95) (layer B.CrtYd) (width 0.05))\n    (fp_line (start -1.68 0.95) (end 1.68 0.95) (layer B.CrtYd) (width 0.05))\n    (fp_line (start 1.68 0.95) (end 1.68 -0.95) (layer B.CrtYd) (width 0.05))\n    (fp_line (start 1.68 -0.95) (end -1.68 -0.95) (layer B.CrtYd) (width 0.05))\n    (fp_text user %R (at 0 0 45) (layer B.Fab)\n      (effects (font (size 0.5 0.5) (thickness 0.08)) (justify mirror))\n    )\n    (pad 1 smd roundrect (at -0.9375 0 45) (size 0.975 1.4) (layers B.Cu B.Paste B.Mask) (roundrect_rratio 0.25)\n      (net 1 v3v3))\n    (pad 2 smd roundrect (at 0.9375 0 45) (size 0.975 1.4) (layers B.Cu B.Paste B.Mask) (roundrect_rratio 0.25)\n      (net 2 gnd))\n    (model ${KISYS3DMOD}/Capacitor_SMD.3dshapes/C_0805_2012Metric.wrl\n      (at (xyz 0 0 0))\n      (scale (xyz 1 1 1))\n      (rotate (xyz 0 0 0))\n    )\n  )\n\n  (via (at 140.403806 113.181981) (size 0.8) (drill 0.4) (layers F.Cu B.Cu) (net 1) (tstamp 5D6F43FA))\n  (segment (start 141.172785 112.059449) (end 140.403806 112.828427) (width 0.25) (layer F.Cu) (net 1) (tstamp 5D6F4874) (status 10))\n  (segment (start 140.403806 112.828427) (end 140.403806 113.181981) (width 0.25) (layer F.Cu) (net 1) (tstamp 5D6F486B))\n  (via (at 139.696699 107.525126) (size 0.8) (drill 0.4) (layers F.Cu B.Cu) (net 1) (tstamp 5D6F43F7))\n  (segment (start 143.629981 109.955806) (end 143.585786 109.911612) (width 0.25) (layer B.Cu) (net 1) (tstamp 5D6F4865) (status 30))\n  (segment (start 145.044194 111.370019) (end 145.088388 111.414214) (width 0.25) (layer B.Cu) (net 1) (tstamp 5D6F4868) (status 30))\n  (segment (start 144.116117 109.116117) (end 146.414214 111.414214) (width 0.25) (layer F.Cu) (net 1) (tstamp 5D6F4862))\n  (segment (start 143.585786 108.585786) (end 144.116117 109.116117) (width 0.25) (layer F.Cu) (net 1) (tstamp 5D6F485F))\n  (segment (start 141.172785 112.059449) (end 144.116117 109.116117) (width 0.25) (layer F.Cu) (net 1) (tstamp 5D6F482C) (status 10))\n  (segment (start 146.414214 111.414214) (end 146.944544 111.944544) (width 0.25) (layer F.Cu) (net 1) (tstamp 5D6F4829))\n  (segment (start 146.944544 112.298097) (end 147.766555 113.120109) (width 0.25) (layer F.Cu) (net 1) (tstamp 5D6F485C) (status 20))\n  (segment (start 146.944544 111.944544) (end 146.944544 112.298097) (width 0.25) (layer F.Cu) (net 1) (tstamp 5D6F4823))\n  (segment (start 147.766555 113.120109) (end 149.065864 114.419417) (width 0.25) (layer F.Cu) (net 1) (tstamp 5D6F4847) (status 10))\n  (via (at 149.065864 114.419417) (size 0.8) (drill 0.4) (layers F.Cu B.Cu) (net 1) (tstamp 5D6F47AE))\n  (segment (start 149.065864 114.065864) (end 149.065864 114.419417) (width 0.25) (layer B.Cu) (net 1) (tstamp 5D6F4853))\n  (segment (start 148.385274 113.385274) (end 149.065864 114.065864) (width 0.25) (layer B.Cu) (net 1) (tstamp 5D6F4859) (status 10))\n  (segment (start 149.180769 108.294105) (end 148.588567 108.886307) (width 0.25) (layer F.Cu) (net 1) (tstamp 5D6F4820) (status 10))\n  (segment (start 148.358757 109.46967) (end 146.414214 111.414214) (width 0.25) (layer F.Cu) (net 1) (tstamp 5D6F4856))\n  (segment (start 146.842853 107.692152) (end 146.33911 107.692152) (width 0.25) (layer F.Cu) (net 1) (tstamp 5D6F484A))\n  (segment (start 146.976348 107.825647) (end 146.842853 107.692152) (width 0.25) (layer F.Cu) (net 1) (tstamp 5D6F4850))\n  (segment (start 148.120109 107.233445) (end 147.527907 107.825647) (width 0.25) (layer F.Cu) (net 1) (tstamp 5D6F484D) (status 10))\n  (segment (start 147.527907 107.825647) (end 146.976348 107.825647) (width 0.25) (layer F.Cu) (net 1) (tstamp 5D6F4844))\n  (segment (start 146.33911 107.692152) (end 144.515631 109.515631) (width 0.25) (layer F.Cu) (net 1) (tstamp 5D6F4835))\n  (segment (start 145.459619 110.954594) (end 145.459619 110.459619) (width 0.25) (layer B.Cu) (net 1) (tstamp 5D6F4841))\n  (segment (start 145.044194 111.370019) (end 145.459619 110.954594) (width 0.25) (layer B.Cu) (net 1) (tstamp 5D6F483E) (status 10))\n  (via (at 145 110) (size 0.8) (drill 0.4) (layers F.Cu B.Cu) (net 1) (tstamp 5D6F47B7))\n  (segment (start 145.459619 110.459619) (end 145 110) (width 0.25) (layer B.Cu) (net 1) (tstamp 5D6F483B))\n  (segment (start 143.629981 109.955806) (end 144.116117 109.46967) (width 0.25) (layer B.Cu) (net 1) (tstamp 5D6F4838) (status 10))\n  (via (at 143.585786 108.585786) (size 0.8) (drill 0.4) (layers F.Cu B.Cu) (net 1) (tstamp 5D6F47BD))\n  (segment (start 144.116117 109.46967) (end 144.116117 109.116117) (width 0.25) (layer B.Cu) (net 1) (tstamp 5D6F487D))\n  (segment (start 144.116117 109.116117) (end 143.585786 108.585786) (width 0.25) (layer B.Cu) (net 1) (tstamp 5D6F4832))\n  (segment (start 141.614726 106.614726) (end 138.989592 109.23986) (width 0.25) (layer B.Cu) (net 1) (tstamp 5D6F482F) (status 10))\n  (segment (start 139.696699 107.525126) (end 140.200513 108.02894) (width 0.25) (layer B.Cu) (net 1) (tstamp 5D6F4826))\n  (segment (start 140.050253 107.525126) (end 139.696699 107.525126) (width 0.25) (layer F.Cu) (net 1) (tstamp 5D6F481D))\n  (segment (start 140.819231 108.294105) (end 140.050253 107.525126) (width 0.25) (layer F.Cu) (net 1) (tstamp 5D6F487A) (status 10))\n  (segment (start 143.185787 108.185787) (end 143.585786 108.585786) (width 0.25) (layer F.Cu) (net 1) (tstamp 5D6F4877))\n  (segment (start 142.373597 108.185787) (end 143.185787 108.185787) (width 0.25) (layer F.Cu) (net 1) (tstamp 5D6F4871))\n  (segment (start 141.673077 108.886307) (end 142.373597 108.185787) (width 0.25) (layer F.Cu) (net 1) (tstamp 5D6F486E))\n  (segment (start 141.411433 108.886307) (end 141.673077 108.886307) (width 0.25) (layer F.Cu) (net 1) (tstamp 5D6F4805))\n  (segment (start 140.819231 108.294105) (end 141.411433 108.886307) (width 0.25) (layer F.Cu) (net 1) (tstamp 5D6F47F6) (status 10))\n  (via (at 141.641243 110.53033) (size 0.8) (drill 0.4) (layers F.Cu B.Cu) (net 1) (tstamp 5D6F47BA))\n  (via (at 144.46967 113.358757) (size 0.8) (drill 0.4) (layers F.Cu B.Cu) (net 1) (tstamp 5D6F47CF))\n  (segment (start 146.705895 114.180769) (end 145.707107 113.181981) (width 0.25) (layer F.Cu) (net 1) (tstamp 5D6F47F3) (status 10))\n  (segment (start 145.353553 112.474874) (end 146.414214 111.414214) (width 0.25) (layer F.Cu) (net 1) (tstamp 5D6F4802))\n  (segment (start 146.705895 114.180769) (end 145.353553 112.828427) (width 0.25) (layer F.Cu) (net 1) (tstamp 5D6F47F0) (status 10))\n  (segment (start 145.353553 112.828427) (end 145.353553 112.474874) (width 0.25) (layer F.Cu) (net 1) (tstamp 5D6F47FF))\n  (segment (start 139.493406 111.263953) (end 138.989592 110.76014) (width 0.25) (layer B.Cu) (net 1) (tstamp 5D6F47EA) (status 10))\n  (segment (start 138.989592 110.76014) (end 138.989592 109.23986) (width 0.25) (layer B.Cu) (net 1) (tstamp 5D6F47D8))\n  (segment (start 140.90762 112.678167) (end 140.403806 113.181981) (width 0.25) (layer B.Cu) (net 1) (tstamp 5D6F4817) (status 10))\n  (segment (start 142.321833 114.09238) (end 143.736047 115.506594) (width 0.25) (layer B.Cu) (net 1) (tstamp 5D6F47FC) (status 30))\n  (segment (start 145 112.828427) (end 145.353553 112.828427) (width 0.25) (layer F.Cu) (net 1) (tstamp 5D6F47ED))\n  (segment (start 144.46967 113.358757) (end 145 112.828427) (width 0.25) (layer F.Cu) (net 1) (tstamp 5D6F47DE))\n  (segment (start 141.287689 110.53033) (end 141.641243 110.53033) (width 0.25) (layer F.Cu) (net 1) (tstamp 5D6F47E7))\n  (segment (start 140.465678 111.352342) (end 141.287689 110.53033) (width 0.25) (layer F.Cu) (net 1) (tstamp 5D6F47DB) (status 10))\n  (segment (start 144.46967 113.358757) (end 143.02894 114.799487) (width 0.25) (layer B.Cu) (net 1) (tstamp 5D6F481A))\n  (segment (start 139.493406 111.263953) (end 139.99722 111.767767) (width 0.25) (layer B.Cu) (net 1) (tstamp 5D6F47F9) (status 10))\n  (segment (start 140.403806 111.767767) (end 141.641243 110.53033) (width 0.25) (layer B.Cu) (net 1) (tstamp 5D6F47D5))\n  (segment (start 139.99722 111.767767) (end 140.403806 111.767767) (width 0.25) (layer B.Cu) (net 1) (tstamp 5D6F47D2))\n  (via (at 145.53033 106.641243) (size 0.8) (drill 0.4) (layers F.Cu B.Cu) (net 1) (tstamp 5D6F47AB))\n  (segment (start 145.484368 106.83741) (end 145.484368 106.687205) (width 0.25) (layer F.Cu) (net 1) (tstamp 5D6F4811))\n  (segment (start 146.581239 107.692152) (end 146.842853 107.692152) (width 0.25) (layer F.Cu) (net 1) (tstamp 5D6F480E))\n  (segment (start 145.53033 106.641243) (end 146.581239 107.692152) (width 0.25) (layer F.Cu) (net 1) (tstamp 5D6F480B))\n  (segment (start 145.53033 106.641243) (end 146.97106 105.200513) (width 0.25) (layer B.Cu) (net 1) (tstamp 5D6F4808))\n  (segment (start 146.263953 104.493406) (end 147.678167 105.90762) (width 0.25) (layer B.Cu) (net 1) (tstamp 5D6F489B) (status 30))\n  (segment (start 149.09238 107.321833) (end 150.506594 108.736047) (width 0.25) (layer B.Cu) (net 1) (tstamp 5D6F4928) (status 30))\n  (via (at 148.358757 109.46967) (size 0.8) (drill 0.4) (layers F.Cu B.Cu) (net 1) (tstamp 5D6F47C0))\n  (segment (start 149.180769 108.294105) (end 148.312795 109.162078) (width 0.25) (layer F.Cu) (net 1) (tstamp 5D6F490D) (status 10))\n  (segment (start 148.312795 109.162078) (end 148.312795 109.515632) (width 0.25) (layer F.Cu) (net 1) (tstamp 5D6F4913))\n  (segment (start 148.358757 109.46967) (end 149.799487 108.02894) (width 0.25) (layer B.Cu) (net 1) (tstamp 5D6F4937))\n  (segment (start 138.749732 109) (end 138.989592 109.23986) (width 0.25) (layer B.Cu) (net 1))\n  (segment (start 149.646447 115) (end 149.065864 114.419417) (width 0.5) (layer F.Cu) (net 1))\n  (via (at 146.590982 108.409018) (size 0.8) (drill 0.4) (layers F.Cu B.Cu) (net 2) (tstamp 5D6F47CC))\n  (via (at 143.40901 111.59099) (size 0.8) (drill 0.4) (layers F.Cu B.Cu) (net 2) (tstamp 5D6F47B4))\n  (segment (start 147.651642 108.409018) (end 146.590982 108.409018) (width 0.25) (layer F.Cu) (net 2) (tstamp 5D6F48F8))\n  (segment (start 148.473662 107.586998) (end 147.651642 108.409018) (width 0.25) (layer F.Cu) (net 2) (tstamp 5D6F48B9) (status 10))\n  (segment (start 143.285266 107.171573) (end 143.585786 107.171573) (width 0.25) (layer B.Cu) (net 2) (tstamp 5D6F48DD))\n  (segment (start 142.728419 107.728419) (end 143.285266 107.171573) (width 0.25) (layer B.Cu) (net 2) (tstamp 5D6F4925) (status 10))\n  (segment (start 141.526338 112.413002) (end 142.34835 111.59099) (width 0.25) (layer F.Cu) (net 2) (tstamp 5D6F48D4) (status 10))\n  (segment (start 142.34835 111.59099) (end 143.40901 111.59099) (width 0.25) (layer F.Cu) (net 2) (tstamp 5D6F492E))\n  (segment (start 143.40901 112.65165) (end 143.40901 111.59099) (width 0.25) (layer F.Cu) (net 2) (tstamp 5D6F4904))\n  (segment (start 142.586998 113.473662) (end 143.40901 112.65165) (width 0.25) (layer F.Cu) (net 2) (tstamp 5D6F4901) (status 10))\n  (segment (start 145.954594 110.459619) (end 145.954594 110.954594) (width 0.25) (layer B.Cu) (net 2) (tstamp 5D6F48FE))\n  (segment (start 146.370019 110.044194) (end 145.954594 110.459619) (width 0.25) (layer B.Cu) (net 2) (tstamp 5D6F48F2) (status 10))\n  (segment (start 145.954594 110.954594) (end 147.271581 112.271581) (width 0.25) (layer B.Cu) (net 2) (tstamp 5D6F48C8) (status 20))\n  (segment (start 142.171573 108.285266) (end 142.171573 108.585786) (width 0.25) (layer B.Cu) (net 2) (tstamp 5D6F48D1))\n  (segment (start 142.728419 107.728419) (end 142.171573 108.285266) (width 0.25) (layer B.Cu) (net 2) (tstamp 5D6F48C5) (status 10))\n  (via (at 142.595836 109.010051) (size 0.8) (drill 0.4) (layers F.Cu B.Cu) (net 2) (tstamp 5D6F47C9))\n  (segment (start 142.195836 109.41005) (end 142.595836 109.010051) (width 0.25) (layer F.Cu) (net 2) (tstamp 5D6F48C2))\n  (segment (start 141.22807 109.41005) (end 142.195836 109.41005) (width 0.25) (layer F.Cu) (net 2) (tstamp 5D6F48AD))\n  (segment (start 140.465678 108.647658) (end 141.22807 109.41005) (width 0.25) (layer F.Cu) (net 2) (tstamp 5D6F48E6) (status 10))\n  (segment (start 142.195836 108.610049) (end 142.171573 108.585786) (width 0.25) (layer B.Cu) (net 2) (tstamp 5D6F491C))\n  (segment (start 142.595836 109.010051) (end 142.195836 108.610049) (width 0.25) (layer B.Cu) (net 2) (tstamp 5D6F4910))\n  (segment (start 146.590982 108.409018) (end 147.271581 107.728419) (width 0.25) (layer B.Cu) (net 2) (tstamp 5D6F48DA))\n  (segment (start 144.292893 106.464466) (end 145.15026 105.607099) (width 0.25) (layer B.Cu) (net 2) (tstamp 5D6F4907) (status 20))\n  (segment (start 145.707107 109.292893) (end 146.590982 108.409018) (width 0.25) (layer B.Cu) (net 2) (tstamp 5D6F491F))\n  (segment (start 145.618718 109.292893) (end 145.707107 109.292893) (width 0.25) (layer B.Cu) (net 2) (tstamp 5D6F48CE))\n  (segment (start 145.618718 109.292893) (end 146.370019 110.044194) (width 0.25) (layer B.Cu) (net 2) (tstamp 5D6F48E0) (status 20))\n  (segment (start 144.955806 108.629981) (end 145.618718 109.292893) (width 0.25) (layer B.Cu) (net 2) (tstamp 5D6F48D7) (status 10))\n  (segment (start 142.021313 111.564474) (end 143.435526 112.978687) (width 0.25) (layer B.Cu) (net 2) (tstamp 5D6F4946) (status 30))\n  (segment (start 143.40901 111.59099) (end 142.728419 112.271581) (width 0.25) (layer B.Cu) (net 2) (tstamp 5D6F48EC))\n  (segment (start 144.292893 106.464466) (end 145.353553 107.525126) (width 0.25) (layer B.Cu) (net 2) (tstamp 5D6F48AA) (status 20))\n  (segment (start 143.585786 107.171573) (end 144.292893 106.464466) (width 0.25) (layer B.Cu) (net 2) (tstamp 5D6F48A7))\n  (segment (start 145.353553 107.525126) (end 146.06066 107.525126) (width 0.25) (layer B.Cu) (net 2) (tstamp 5D6F48A4) (status 10))\n  (segment (start 146.06066 107.525126) (end 146.564474 107.021313) (width 0.25) (layer B.Cu) (net 2) (tstamp 5D6F48A1) (status 20))\n  (via (at 147.298097 109.116117) (size 0.8) (drill 0.4) (layers F.Cu B.Cu) (net 2) (tstamp 5D6F47C6))\n  (segment (start 147.65165 109.116117) (end 147.298097 109.116117) (width 0.25) (layer F.Cu) (net 2) (tstamp 5D6F489E))\n  (segment (start 148.827215 107.940551) (end 147.65165 109.116117) (width 0.25) (layer F.Cu) (net 2) (tstamp 5D6F4943) (status 10))\n  (segment (start 147.298097 109.116117) (end 147.978687 108.435526) (width 0.25) (layer B.Cu) (net 2) (tstamp 5D6F4940) (status 20))\n  (segment (start 146.564474 107.021313) (end 147.978687 108.435526) (width 0.25) (layer B.Cu) (net 2) (tstamp 5D6F4931) (status 30))\n  (segment (start 147.298097 109.46967) (end 147.298097 109.116117) (width 0.25) (layer B.Cu) (net 2) (tstamp 5D6F493D) (status 10))\n  (segment (start 148.181981 110.353553) (end 147.298097 109.46967) (width 0.25) (layer B.Cu) (net 2) (tstamp 5D6F493A) (status 20))\n  (segment (start 149.392901 109.84974) (end 148.889087 110.353553) (width 0.25) (layer B.Cu) (net 2) (tstamp 5D6F4934) (status 10))\n  (segment (start 148.889087 110.353553) (end 148.181981 110.353553) (width 0.25) (layer B.Cu) (net 2) (tstamp 5D6F492B))\n  (segment (start 141.110913 109.646447) (end 140.607099 110.15026) (width 0.25) (layer B.Cu) (net 2))\n  (segment (start 142.595836 109.010051) (end 141.959439 109.646447) (width 0.25) (layer B.Cu) (net 2))\n  (segment (start 141.959439 109.646447) (end 141.110913 109.646447) (width 0.25) (layer B.Cu) (net 2))\n  (segment (start 148.93934 105) (end 147.413002 106.526338) (width 0.16) (layer F.Cu) (net 3) (status 20))\n  (segment (start 148.646446 106) (end 147.766555 106.879891) (width 0.16) (layer F.Cu) (net 4) (status 20))\n  (segment (start 146.352342 114.534322) (end 147 115.18198) (width 0.16) (layer F.Cu) (net 5) (status 10))\n  (segment (start 147 115.18198) (end 147 116) (width 0.16) (layer F.Cu) (net 5))\n  (segment (start 145.998788 114.887876) (end 146.5 115.389088) (width 0.16) (layer F.Cu) (net 6) (status 30))\n  (segment (start 146.5 115.389088) (end 146.5 116) (width 0.16) (layer F.Cu) (net 6) (status 10))\n  (segment (start 143.294105 105.819231) (end 141.5 104.025126) (width 0.16) (layer F.Cu) (net 7) (status 10))\n  (segment (start 138.922069 112.188843) (end 140.112124 110.998788) (width 0.16) (layer F.Cu) (net 8) (status 20))\n  (segment (start 142.940551 106.172785) (end 142.940551 106.017235) (width 0.16) (layer F.Cu) (net 10) (status 30))\n  (segment (start 147.059449 106.172785) (end 149.232234 104) (width 0.16) (layer F.Cu) (net 11))\n  (segment (start 147.059449 113.827215) (end 148.116117 114.883883) (width 0.16) (layer F.Cu) (net 12) (status 10))\n  (segment (start 141.879891 112.766555) (end 141.724343 112.766555) (width 0.16) (layer F.Cu) (net 13) (status 30))\n  (segment (start 139.646446 115) (end 141.879891 112.766555) (width 0.16) (layer F.Cu) (net 13) (status 20))\n  (segment (start 143.647658 114.534322) (end 143 115.18198) (width 0.16) (layer F.Cu) (net 14))\n  (segment (start 143.647658 105.465678) (end 142 103.81802) (width 0.16) (layer F.Cu) (net 18) (status 10))\n  (segment (start 144.001212 105.112124) (end 143 104.110912) (width 0.16) (layer F.Cu) (net 19) (status 10))\n  (via (at 156 110) (size 0.8) (drill 0.4) (layers F.Cu B.Cu) (net 23))\n  (segment (start 158.05 110) (end 156 110) (width 0.16) (layer F.Cu) (net 23) (status 10))\n  (via (at 139 106.5) (size 0.8) (drill 0.4) (layers F.Cu B.Cu) (net 23))\n  (segment (start 141.172785 107.940551) (end 139.732234 106.5) (width 0.16) (layer F.Cu) (net 23) (status 10))\n  (segment (start 139.732234 106.5) (end 139 106.5) (width 0.16) (layer F.Cu) (net 23))\n  (segment (start 154.5 110) (end 156 110) (width 0.16) (layer B.Cu) (net 23))\n  (segment (start 139.525126 113) (end 140.819231 111.705895) (width 0.16) (layer F.Cu) (net 24) (status 20))\n  (segment (start 143.294105 114.180769) (end 142 115.474874) (width 0.16) (layer F.Cu) (net 26))\n  (via (at 146.237437 112.65165) (size 0.8) (drill 0.4) (layers F.Cu B.Cu) (net 27) (tstamp 5D6F47C3))\n  (segment (start 147.413002 113.473662) (end 146.59099 112.65165) (width 0.25) (layer F.Cu) (net 27) (tstamp 5D6F4895) (status 10))\n  (segment (start 146.59099 112.65165) (end 146.237437 112.65165) (width 0.25) (layer F.Cu) (net 27) (tstamp 5D6F4880))\n  (via (at 156 111.5) (size 0.8) (drill 0.4) (layers F.Cu B.Cu) (net 27))\n  (segment (start 158.05 111.27) (end 156.23 111.27) (width 0.16) (layer F.Cu) (net 27) (status 10))\n  (segment (start 156.23 111.27) (end 156 111.5) (width 0.16) (layer F.Cu) (net 27))\n  (segment (start 148.645205 115.059418) (end 146.237437 112.65165) (width 0.16) (layer B.Cu) (net 27))\n  (segment (start 152.440582 115.059418) (end 148.645205 115.059418) (width 0.16) (layer B.Cu) (net 27))\n  (segment (start 156 111.5) (end 152.440582 115.059418) (width 0.16) (layer B.Cu) (net 27))\n  (segment (start 157.5 110) (end 156 111.5) (width 0.16) (layer B.Cu) (net 27))\n  (segment (start 159.2125 110) (end 157.5 110) (width 0.16) (layer B.Cu) (net 27) (status 10))\n  (segment (start 147.65165 111.237437) (end 147.828427 111.414214) (width 0.25) (layer B.Cu) (net 28) (tstamp 5D6F488F))\n  (segment (start 148.827215 112.059449) (end 148.005204 111.237437) (width 0.25) (layer F.Cu) (net 28) (tstamp 5D6F4883) (status 10))\n  (segment (start 148.005204 111.237437) (end 147.65165 111.237437) (width 0.25) (layer F.Cu) (net 28) (tstamp 5D6F4889))\n  (via (at 147.65165 111.237437) (size 0.8) (drill 0.4) (layers F.Cu B.Cu) (net 28) (tstamp 5D6F47B1))\n  (segment (start 149.767766 113) (end 148.827215 112.059449) (width 0.16) (layer F.Cu) (net 28) (status 20))\n  (segment (start 153 113) (end 149.767766 113) (width 0.16) (layer F.Cu) (net 28))\n  (segment (start 153.46 112.54) (end 153 113) (width 0.16) (layer F.Cu) (net 28))\n  (via (at 155.96 112.54) (size 0.8) (drill 0.4) (layers F.Cu B.Cu) (net 28))\n  (segment (start 155.96 112.54) (end 153.46 112.54) (width 0.16) (layer F.Cu) (net 28))\n  (segment (start 158.05 112.54) (end 155.96 112.54) (width 0.16) (layer F.Cu) (net 28) (status 10))\n  (segment (start 155.96 112.54) (end 157.46 112.54) (width 0.16) (layer B.Cu) (net 28))\n  (segment (start 158 112) (end 159.2125 112) (width 0.16) (layer B.Cu) (net 28) (status 20))\n  (segment (start 157.46 112.54) (end 158 112) (width 0.16) (layer B.Cu) (net 28))\n  (via (at 156 107) (size 0.8) (drill 0.4) (layers F.Cu B.Cu) (net 29))\n  (segment (start 158.05 107.46) (end 156.46 107.46) (width 0.16) (layer F.Cu) (net 29) (status 10))\n  (segment (start 156.46 107.46) (end 156 107) (width 0.16) (layer F.Cu) (net 29))\n  (segment (start 157 108) (end 156 107) (width 0.16) (layer B.Cu) (net 29))\n  (segment (start 159.2125 108) (end 157 108) (width 0.16) (layer B.Cu) (net 29) (status 10))\n  (segment (start 149.974874 112.5) (end 149.180769 111.705895) (width 0.16) (layer F.Cu) (net 29) (status 20))\n  (segment (start 152.5 112.5) (end 149.974874 112.5) (width 0.16) (layer F.Cu) (net 29))\n  (segment (start 153.5 111.5) (end 152.5 112.5) (width 0.16) (layer F.Cu) (net 29))\n  (segment (start 153.5 110.5) (end 153.5 111.5) (width 0.16) (layer F.Cu) (net 29))\n  (segment (start 158.05 107.46) (end 156.54 107.46) (width 0.16) (layer F.Cu) (net 29) (status 10))\n  (segment (start 156.54 107.46) (end 153.5 110.5) (width 0.16) (layer F.Cu) (net 29))\n\n)\n'
p3
S'a9e25105464765f5dd3aa9d7bf9ca1d9'
p4
(dp5
S'out_cap'
p6
(lp7
S'out_cap'
p8
aVelectronics_abstract_parts_AbstractPassives_DecouplingCapacitor_821F23FA.sch
p9
asS'vbat_cap'
p10
(lp11
S'vbat_cap'
p12
aVelectronics_abstract_parts_AbstractPassives_DecouplingCapacitor_2A2B10C5.sch
p13
asS'vref_cap_2'
p14
(lp15
S'vref_cap_2'
p16
aVelectronics_abstract_parts_AbstractPassives_DecouplingCapacitor_2A2B10C5.sch
p17
asS'in_cap'
p18
(lp19
S'in_cap'
p20
aVelectronics_abstract_parts_AbstractPassives_DecouplingCapacitor_821F23FA.sch
p21
asS'swdio_pull'
p22
(lp23
S'swdio_pull'
p24
aVelectronics_abstract_parts_AbstractPassives_PullupResistor_D7DC0F28.sch
p25
asS'can_cap'
p26
(lp27
S'can_cap'
p28
aVelectronics_abstract_parts_AbstractPassives_DecouplingCapacitor_2A2B10C5.sch
p29
asS'pwr_cap_3'
p30
(lp31
S'pwr_cap_3'
p32
aVelectronics_abstract_parts_AbstractPassives_DecouplingCapacitor_2A2B10C5.sch
p33
asS'pwr_cap_0'
p34
(lp35
S'pwr_cap_0'
p36
aVelectronics_abstract_parts_AbstractPassives_DecouplingCapacitor_2A2B10C5.sch
p37
asS'light_5'
p38
(lp39
S'light_5'
p40
aVelectronics_lib_CalSolBlocks_CalSolLightsDriver_FC214C06.sch
p41
asS'drv_0'
p42
(lp43
S'drv_0'
p44
aVelectronics_abstract_parts_DigitalAmplifiers_HighSideSwitch_A3525822.sch
p45
asS'drv_1'
p46
(lp47
S'drv_1'
p48
aVelectronics_abstract_parts_DigitalAmplifiers_HighSideSwitch_A3525822.sch
p49
asS'light_0'
p50
(lp51
S'light_0'
p52
aVelectronics_lib_CalSolBlocks_CalSolLightsDriver_FC214C06.sch
p53
asS'light_1'
p54
(lp55
S'light_1'
p56
aVelectronics_lib_CalSolBlocks_CalSolLightsDriver_FC214C06.sch
p57
asS'pwra_cap_0'
p58
(lp59
S'pwra_cap_0'
p60
aVelectronics_abstract_parts_AbstractPassives_DecouplingCapacitor_2A2B10C5.sch
p61
asS'pwra_cap_1'
p62
(lp63
S'pwra_cap_1'
p64
aVelectronics_abstract_parts_AbstractPassives_DecouplingCapacitor_2A2B10C5.sch
p65
asS'reset_pull'
p66
(lp67
S'reset_pull'
p68
aVelectronics_abstract_parts_AbstractPassives_PullupResistor_D7DC0F28.sch
p69
asS'reg'
p70
(lp71
S'reg'
p72
aVelectronics_lib_LinearRegulators_Ap2204k_5_0_64A05980.sch
p73
asS'pwr_cap_2'
p74
(lp75
S'pwr_cap_2'
p76
aVelectronics_abstract_parts_AbstractPassives_DecouplingCapacitor_2A2B10C5.sch
p77
asS'vref_cap_1'
p78
(lp79
S'vref_cap_1'
p80
aVelectronics_abstract_parts_AbstractPassives_DecouplingCapacitor_2A2B10C5.sch
p81
asS'vref_cap_0'
p82
(lp83
S'vref_cap_0'
p84
aVelectronics_abstract_parts_AbstractPassives_DecouplingCapacitor_2A2B10C5.sch
p85
asS'pwr'
p86
(lp87
S'pwr'
p88
aVelectronics_lib_DcDcConverters_Tps561201_A003C9D6.sch
p89
asS'vsense'
p90
(lp91
S'vsense'
p92
aVelectronics_abstract_parts_ResistiveDivider_VoltageDivider_232A3410.sch
p93
asS'swclk_pull'
p94
(lp95
S'swclk_pull'
p96
aVelectronics_abstract_parts_AbstractPassives_PulldownResistor_D7DC0F28.sch
p97
asS'hf_in_cap'
p98
(lp99
S'hf_in_cap'
p100
aVelectronics_abstract_parts_AbstractPassives_DecouplingCapacitor_2A2B10C5.sch
p101
asS'light_4'
p102
(lp103
S'light_4'
p104
aVelectronics_lib_CalSolBlocks_CalSolLightsDriver_FC214C06.sch
p105
asS'transceiver'
p106
(lp107
S'transceiver'
p108
aVelectronics_lib_Iso1050_Iso1050dub_80C3610F.sch
p109
asS'fb'
p110
(lp111
S'fb'
p112
aVelectronics_abstract_parts_ResistiveDivider_VoltageDivider_232A3410.sch
p113
asS'pwr_cap_1'
p114
(lp115
S'pwr_cap_1'
p116
aVelectronics_abstract_parts_AbstractPassives_DecouplingCapacitor_2A2B10C5.sch
p117
asS'light_2'
p118
(lp119
S'light_2'
p120
aVelectronics_lib_CalSolBlocks_CalSolLightsDriver_FC214C06.sch
p121
asS'mcu'
p122
(lp123
S'mcu'
p124
aVelectronics_lib_Lpc1549_Lpc1549_48_EA4D25CC.sch
p125
asS'light_3'
p126
(lp127
S'light_3'
p128
aVelectronics_lib_CalSolBlocks_CalSolLightsDriver_FC214C06.sch
p129
asS'logic_cap'
p130
(lp131
S'logic_cap'
p132
aVelectronics_abstract_parts_AbstractPassives_DecouplingCapacitor_2A2B10C5.sch
p133
asS'rgb2'
p134
(lp135
S'rgb2'
p136
aVelectronics_lib_Leds_IndicatorSinkRgbLed_62893C72.sch
p137
asS'pwr_cap_4'
p138
(lp139
S'pwr_cap_4'
p140
aVelectronics_abstract_parts_AbstractPassives_DecouplingCapacitor_2A2B10C5.sch
p141
asS'rgb1'
p142
(lp143
S'rgb1'
p144
aVelectronics_lib_Leds_IndicatorSinkRgbLed_62893C72.sch
p145
asS'pwr_cap_5'
p146
(lp147
S'pwr_cap_5'
p148
aVelectronics_abstract_parts_AbstractPassives_DecouplingCapacitor_2A2B10C5.sch
p149
asS'crystal'
p150
(lp151
S'crystal'
p152
aVelectronics_lib_Crystals_Crystal_2D604494.sch
p153
asS'can'
p154
(lp155
S'can'
p156
aVelectronics_lib_CalSolBlocks_CalSolCanBlock_501F4D98.sch
p157
as(lp158
(lp159
g124
a(lp160
g125
atp161
tp162
Rp163
.