ccopy_reg
_reconstructor
p0
(csave_restore_layout.save_restore_layout
LayoutData
p1
c__builtin__
tuple
p2
(S'(kicad_pcb (version 20171130) (host pcbnew "(5.1.0)-1")\n\n  (general\n    (thickness 1.6)\n    (drawings 0)\n    (tracks 40)\n    (zones 0)\n    (modules 8)\n    (nets 7)\n  )\n\n  (page A4)\n  (layers\n    (0 F.Cu signal)\n    (31 B.Cu signal)\n    (32 B.Adhes user)\n    (33 F.Adhes user)\n    (34 B.Paste user)\n    (35 F.Paste user)\n    (36 B.SilkS user)\n    (37 F.SilkS user)\n    (38 B.Mask user)\n    (39 F.Mask user)\n    (40 Dwgs.User user)\n    (41 Cmts.User user)\n    (42 Eco1.User user)\n    (43 Eco2.User user)\n    (44 Edge.Cuts user)\n    (45 Margin user)\n    (46 B.CrtYd user hide)\n    (47 F.CrtYd user hide)\n    (48 B.Fab user hide)\n    (49 F.Fab user hide)\n  )\n\n  (setup\n    (last_trace_width 0.16)\n    (user_trace_width 0.16)\n    (user_trace_width 0.25)\n    (user_trace_width 0.5)\n    (user_trace_width 1)\n    (trace_clearance 0.16)\n    (zone_clearance 0.254)\n    (zone_45_only no)\n    (trace_min 0.16)\n    (via_size 0.8)\n    (via_drill 0.4)\n    (via_min_size 0.4)\n    (via_min_drill 0.3)\n    (user_via 0.8 0.4)\n    (user_via 1.2 0.8)\n    (uvia_size 0.3)\n    (uvia_drill 0.1)\n    (uvias_allowed no)\n    (uvia_min_size 0.2)\n    (uvia_min_drill 0.1)\n    (edge_width 0.05)\n    (segment_width 0.2)\n    (pcb_text_width 0.3)\n    (pcb_text_size 1.5 1.5)\n    (mod_edge_width 0.12)\n    (mod_text_size 1 1)\n    (mod_text_width 0.15)\n    (pad_size 1.524 1.524)\n    (pad_drill 0.762)\n    (pad_to_mask_clearance 0.051)\n    (solder_mask_min_width 0.25)\n    (aux_axis_origin 0 0)\n    (visible_elements 7FFFFFFF)\n    (pcbplotparams\n      (layerselection 0x010fc_ffffffff)\n      (usegerberextensions false)\n      (usegerberattributes false)\n      (usegerberadvancedattributes false)\n      (creategerberjobfile false)\n      (excludeedgelayer true)\n      (linewidth 0.100000)\n      (plotframeref false)\n      (viasonmask false)\n      (mode 1)\n      (useauxorigin false)\n      (hpglpennumber 1)\n      (hpglpenspeed 20)\n      (hpglpendiameter 15.000000)\n      (psnegative false)\n      (psa4output false)\n      (plotreference true)\n      (plotvalue true)\n      (plotinvisibletext false)\n      (padsonsilk false)\n      (subtractmaskfromsilk false)\n      (outputformat 1)\n      (mirror false)\n      (drillshape 1)\n      (scaleselection 1)\n      (outputdirectory ""))\n  )\n\n  (net 0 "")\n  (net 1 pwr.sw)\n  (net 2 v3v3)\n  (net 3 gnd)\n  (net 4 vin)\n  (net 5 pwr.ic.4)\n  (net 6 pwr.vbst_cap.pos)\n\n  (net_class Default "This is the default net class."\n    (clearance 0.16)\n    (trace_width 0.16)\n    (via_dia 0.8)\n    (via_drill 0.4)\n    (uvia_dia 0.3)\n    (uvia_drill 0.1)\n    (add_net gnd)\n    (add_net pwr.ic.4)\n    (add_net pwr.sw)\n    (add_net pwr.vbst_cap.pos)\n    (add_net rgb1.green_res.a)\n    (add_net rgb2.blue_res.1)\n    (add_net rgb2.green_res.1)\n    (add_net rgb2.red_res.a)\n    (add_net v3v3)\n    (add_net vin)\n  )\n\n  (module Capacitor_SMD:C_0603_1608Metric (layer B.Cu) (tedit 5B301BBE) (tstamp 5D6F8594)\n    (at 195 130 180)\n    (descr "Capacitor SMD 0603 (1608 Metric), square (rectangular) end terminal, IPC_7351 nominal, (Body size source: http://www.tortai-tech.com/upload/download/2011102023233369053.pdf), generated with kicad-footprint-generator")\n    (tags capacitor)\n    (path /pwr/hf_in_cap)\n    (attr smd)\n    (fp_text reference pwr.hf_in_cap (at 0 -1 180) (layer B.SilkS)\n      (effects (font (size 0.5 0.5) (thickness 0.08)) (justify mirror))\n    )\n    (fp_text value "0.1\xc2\xb5F, 50V, CL10B104KB8NNNC (C=(8e-08, 1.2e-07) F, V=(10.8, 13.200000000000001) V)" (at 0 -1.43 180) (layer B.Fab)\n      (effects (font (size 0.5 0.5) (thickness 0.08)) (justify mirror))\n    )\n    (fp_text user %R (at 0 0 180) (layer B.Fab)\n      (effects (font (size 0.5 0.5) (thickness 0.08)) (justify mirror))\n    )\n    (fp_line (start 1.48 -0.73) (end -1.48 -0.73) (layer B.CrtYd) (width 0.05))\n    (fp_line (start 1.48 0.73) (end 1.48 -0.73) (layer B.CrtYd) (width 0.05))\n    (fp_line (start -1.48 0.73) (end 1.48 0.73) (layer B.CrtYd) (width 0.05))\n    (fp_line (start -1.48 -0.73) (end -1.48 0.73) (layer B.CrtYd) (width 0.05))\n    (fp_line (start -0.162779 -0.51) (end 0.162779 -0.51) (layer B.SilkS) (width 0.12))\n    (fp_line (start -0.162779 0.51) (end 0.162779 0.51) (layer B.SilkS) (width 0.12))\n    (fp_line (start 0.8 -0.4) (end -0.8 -0.4) (layer B.Fab) (width 0.1))\n    (fp_line (start 0.8 0.4) (end 0.8 -0.4) (layer B.Fab) (width 0.1))\n    (fp_line (start -0.8 0.4) (end 0.8 0.4) (layer B.Fab) (width 0.1))\n    (fp_line (start -0.8 -0.4) (end -0.8 0.4) (layer B.Fab) (width 0.1))\n    (pad 2 smd roundrect (at 0.7875 0 180) (size 0.875 0.95) (layers B.Cu B.Paste B.Mask) (roundrect_rratio 0.25)\n      (net 3 gnd))\n    (pad 1 smd roundrect (at -0.7875 0 180) (size 0.875 0.95) (layers B.Cu B.Paste B.Mask) (roundrect_rratio 0.25)\n      (net 4 vin))\n    (model ${KISYS3DMOD}/Capacitor_SMD.3dshapes/C_0603_1608Metric.wrl\n      (at (xyz 0 0 0))\n      (scale (xyz 1 1 1))\n      (rotate (xyz 0 0 0))\n    )\n  )\n\n  (module Package_TO_SOT_SMD:SOT-23-6 (layer B.Cu) (tedit 5A02FF57) (tstamp 5D6F855A)\n    (at 195 127 180)\n    (descr "6-pin SOT-23 package")\n    (tags SOT-23-6)\n    (path /pwr/ic)\n    (attr smd)\n    (fp_text reference pwr.ic (at 0 2 180) (layer B.SilkS)\n      (effects (font (size 0.5 0.5) (thickness 0.08)) (justify mirror))\n    )\n    (fp_text value TPS561201 (at 0 -2.9 180) (layer B.Fab)\n      (effects (font (size 0.5 0.5) (thickness 0.08)) (justify mirror))\n    )\n    (fp_text user %R (at 0 0 90) (layer B.Fab)\n      (effects (font (size 0.5 0.5) (thickness 0.08)) (justify mirror))\n    )\n    (fp_line (start -0.9 -1.61) (end 0.9 -1.61) (layer B.SilkS) (width 0.12))\n    (fp_line (start 0.9 1.61) (end -1.55 1.61) (layer B.SilkS) (width 0.12))\n    (fp_line (start 1.9 1.8) (end -1.9 1.8) (layer B.CrtYd) (width 0.05))\n    (fp_line (start 1.9 -1.8) (end 1.9 1.8) (layer B.CrtYd) (width 0.05))\n    (fp_line (start -1.9 -1.8) (end 1.9 -1.8) (layer B.CrtYd) (width 0.05))\n    (fp_line (start -1.9 1.8) (end -1.9 -1.8) (layer B.CrtYd) (width 0.05))\n    (fp_line (start -0.9 0.9) (end -0.25 1.55) (layer B.Fab) (width 0.1))\n    (fp_line (start 0.9 1.55) (end -0.25 1.55) (layer B.Fab) (width 0.1))\n    (fp_line (start -0.9 0.9) (end -0.9 -1.55) (layer B.Fab) (width 0.1))\n    (fp_line (start 0.9 -1.55) (end -0.9 -1.55) (layer B.Fab) (width 0.1))\n    (fp_line (start 0.9 1.55) (end 0.9 -1.55) (layer B.Fab) (width 0.1))\n    (pad 1 smd rect (at -1.1 0.95 180) (size 1.06 0.65) (layers B.Cu B.Paste B.Mask)\n      (net 3 gnd))\n    (pad 2 smd rect (at -1.1 0 180) (size 1.06 0.65) (layers B.Cu B.Paste B.Mask)\n      (net 1 pwr.sw))\n    (pad 3 smd rect (at -1.1 -0.95 180) (size 1.06 0.65) (layers B.Cu B.Paste B.Mask)\n      (net 4 vin))\n    (pad 4 smd rect (at 1.1 -0.95 180) (size 1.06 0.65) (layers B.Cu B.Paste B.Mask)\n      (net 5 pwr.ic.4))\n    (pad 6 smd rect (at 1.1 0.95 180) (size 1.06 0.65) (layers B.Cu B.Paste B.Mask)\n      (net 6 pwr.vbst_cap.pos))\n    (pad 5 smd rect (at 1.1 0 180) (size 1.06 0.65) (layers B.Cu B.Paste B.Mask)\n      (net 4 vin))\n    (model ${KISYS3DMOD}/Package_TO_SOT_SMD.3dshapes/SOT-23-6.wrl\n      (at (xyz 0 0 0))\n      (scale (xyz 1 1 1))\n      (rotate (xyz 0 0 0))\n    )\n  )\n\n  (module Inductor_SMD:L_Taiyo-Yuden_NR-60xx (layer F.Cu) (tedit 5990349D) (tstamp 5D6F8515)\n    (at 200 127 90)\n    (descr "Inductor, Taiyo Yuden, NR series, Taiyo-Yuden_NR-60xx, 6.0mmx6.0mm")\n    (tags "inductor taiyo-yuden nr smd")\n    (path /pwr/inductor)\n    (attr smd)\n    (fp_text reference pwr.inductor (at -4 0 180) (layer F.SilkS)\n      (effects (font (size 0.5 0.5) (thickness 0.08)))\n    )\n    (fp_text value "10\xc2\xb5H, 2.5A, NR6045T100M (L=(4.6396372126436784e-06, inf) H, I=(0.0, 1.7999999999999998) A, f=(580000.0, 580000.0) Hz)" (at 0 4.5 90) (layer F.Fab)\n      (effects (font (size 0.5 0.5) (thickness 0.08)))\n    )\n    (fp_text user %R (at 0 0 90) (layer F.Fab)\n      (effects (font (size 0.5 0.5) (thickness 0.08)))\n    )\n    (fp_line (start -3 0) (end -3 -2) (layer F.Fab) (width 0.1))\n    (fp_line (start -3 -2) (end -2 -3) (layer F.Fab) (width 0.1))\n    (fp_line (start -2 -3) (end 0 -3) (layer F.Fab) (width 0.1))\n    (fp_line (start 3 0) (end 3 -2) (layer F.Fab) (width 0.1))\n    (fp_line (start 3 -2) (end 2 -3) (layer F.Fab) (width 0.1))\n    (fp_line (start 2 -3) (end 0 -3) (layer F.Fab) (width 0.1))\n    (fp_line (start 3 0) (end 3 2) (layer F.Fab) (width 0.1))\n    (fp_line (start 3 2) (end 2 3) (layer F.Fab) (width 0.1))\n    (fp_line (start 2 3) (end 0 3) (layer F.Fab) (width 0.1))\n    (fp_line (start -3 0) (end -3 2) (layer F.Fab) (width 0.1))\n    (fp_line (start -3 2) (end -2 3) (layer F.Fab) (width 0.1))\n    (fp_line (start -2 3) (end 0 3) (layer F.Fab) (width 0.1))\n    (fp_line (start -3.15 -3.1) (end 3.15 -3.1) (layer F.SilkS) (width 0.12))\n    (fp_line (start -3.15 3.1) (end 3.15 3.1) (layer F.SilkS) (width 0.12))\n    (fp_line (start -3.45 -3.25) (end -3.45 3.25) (layer F.CrtYd) (width 0.05))\n    (fp_line (start -3.45 3.25) (end 3.45 3.25) (layer F.CrtYd) (width 0.05))\n    (fp_line (start 3.45 3.25) (end 3.45 -3.25) (layer F.CrtYd) (width 0.05))\n    (fp_line (start 3.45 -3.25) (end -3.45 -3.25) (layer F.CrtYd) (width 0.05))\n    (pad 1 smd rect (at -2.35 0 90) (size 1.6 5.9) (layers F.Cu F.Paste F.Mask)\n      (net 1 pwr.sw))\n    (pad 2 smd rect (at 2.35 0 90) (size 1.6 5.9) (layers F.Cu F.Paste F.Mask)\n      (net 2 v3v3))\n    (model ${KISYS3DMOD}/Inductor_SMD.3dshapes/L_Taiyo-Yuden_NR-60xx.wrl\n      (at (xyz 0 0 0))\n      (scale (xyz 1 1 1))\n      (rotate (xyz 0 0 0))\n    )\n  )\n\n  (module Capacitor_SMD:C_0603_1608Metric (layer B.Cu) (tedit 5B301BBE) (tstamp 5D6F84DD)\n    (at 195 124)\n    (descr "Capacitor SMD 0603 (1608 Metric), square (rectangular) end terminal, IPC_7351 nominal, (Body size source: http://www.tortai-tech.com/upload/download/2011102023233369053.pdf), generated with kicad-footprint-generator")\n    (tags capacitor)\n    (path /pwr/vbst_cap)\n    (attr smd)\n    (fp_text reference pwr.vbst_cap (at 0 -1) (layer B.SilkS)\n      (effects (font (size 0.5 0.5) (thickness 0.08)) (justify mirror))\n    )\n    (fp_text value "0.1\xc2\xb5F, 50V, CL10B104KB8NNNC (C=(8e-08, 1.2e-07) F, V=(0.0, 6.0) V)" (at 0 -1.43) (layer B.Fab)\n      (effects (font (size 0.5 0.5) (thickness 0.08)) (justify mirror))\n    )\n    (fp_line (start -0.8 -0.4) (end -0.8 0.4) (layer B.Fab) (width 0.1))\n    (fp_line (start -0.8 0.4) (end 0.8 0.4) (layer B.Fab) (width 0.1))\n    (fp_line (start 0.8 0.4) (end 0.8 -0.4) (layer B.Fab) (width 0.1))\n    (fp_line (start 0.8 -0.4) (end -0.8 -0.4) (layer B.Fab) (width 0.1))\n    (fp_line (start -0.162779 0.51) (end 0.162779 0.51) (layer B.SilkS) (width 0.12))\n    (fp_line (start -0.162779 -0.51) (end 0.162779 -0.51) (layer B.SilkS) (width 0.12))\n    (fp_line (start -1.48 -0.73) (end -1.48 0.73) (layer B.CrtYd) (width 0.05))\n    (fp_line (start -1.48 0.73) (end 1.48 0.73) (layer B.CrtYd) (width 0.05))\n    (fp_line (start 1.48 0.73) (end 1.48 -0.73) (layer B.CrtYd) (width 0.05))\n    (fp_line (start 1.48 -0.73) (end -1.48 -0.73) (layer B.CrtYd) (width 0.05))\n    (fp_text user %R (at 0 0) (layer B.Fab)\n      (effects (font (size 0.5 0.5) (thickness 0.08)) (justify mirror))\n    )\n    (pad 1 smd roundrect (at -0.7875 0) (size 0.875 0.95) (layers B.Cu B.Paste B.Mask) (roundrect_rratio 0.25)\n      (net 6 pwr.vbst_cap.pos))\n    (pad 2 smd roundrect (at 0.7875 0) (size 0.875 0.95) (layers B.Cu B.Paste B.Mask) (roundrect_rratio 0.25)\n      (net 1 pwr.sw))\n    (model ${KISYS3DMOD}/Capacitor_SMD.3dshapes/C_0603_1608Metric.wrl\n      (at (xyz 0 0 0))\n      (scale (xyz 1 1 1))\n      (rotate (xyz 0 0 0))\n    )\n  )\n\n  (module Resistor_SMD:R_0603_1608Metric (layer B.Cu) (tedit 5B301BBD) (tstamp 5D6F8717)\n    (at 189 127 90)\n    (descr "Resistor SMD 0603 (1608 Metric), square (rectangular) end terminal, IPC_7351 nominal, (Body size source: http://www.tortai-tech.com/upload/download/2011102023233369053.pdf), generated with kicad-footprint-generator")\n    (tags resistor)\n    (path /pwr/fb/bottom_res)\n    (attr smd)\n    (fp_text reference pwr.fb.bottom_res (at 0 -1 90) (layer B.SilkS)\n      (effects (font (size 0.5 0.5) (thickness 0.08)) (justify mirror))\n    )\n    (fp_text value "10000, 1%, 0.1W (R=(9900.0, 10100.0) Ohm, P=(0.0, 0.0) W)" (at 0 -1.43 90) (layer B.Fab)\n      (effects (font (size 0.5 0.5) (thickness 0.08)) (justify mirror))\n    )\n    (fp_line (start -0.8 -0.4) (end -0.8 0.4) (layer B.Fab) (width 0.1))\n    (fp_line (start -0.8 0.4) (end 0.8 0.4) (layer B.Fab) (width 0.1))\n    (fp_line (start 0.8 0.4) (end 0.8 -0.4) (layer B.Fab) (width 0.1))\n    (fp_line (start 0.8 -0.4) (end -0.8 -0.4) (layer B.Fab) (width 0.1))\n    (fp_line (start -0.162779 0.51) (end 0.162779 0.51) (layer B.SilkS) (width 0.12))\n    (fp_line (start -0.162779 -0.51) (end 0.162779 -0.51) (layer B.SilkS) (width 0.12))\n    (fp_line (start -1.48 -0.73) (end -1.48 0.73) (layer B.CrtYd) (width 0.05))\n    (fp_line (start -1.48 0.73) (end 1.48 0.73) (layer B.CrtYd) (width 0.05))\n    (fp_line (start 1.48 0.73) (end 1.48 -0.73) (layer B.CrtYd) (width 0.05))\n    (fp_line (start 1.48 -0.73) (end -1.48 -0.73) (layer B.CrtYd) (width 0.05))\n    (fp_text user %R (at 0 0 90) (layer B.Fab)\n      (effects (font (size 0.5 0.5) (thickness 0.08)) (justify mirror))\n    )\n    (pad 1 smd roundrect (at -0.7875 0 90) (size 0.875 0.95) (layers B.Cu B.Paste B.Mask) (roundrect_rratio 0.25)\n      (net 5 pwr.ic.4))\n    (pad 2 smd roundrect (at 0.7875 0 90) (size 0.875 0.95) (layers B.Cu B.Paste B.Mask) (roundrect_rratio 0.25)\n      (net 3 gnd))\n    (model ${KISYS3DMOD}/Resistor_SMD.3dshapes/R_0603_1608Metric.wrl\n      (at (xyz 0 0 0))\n      (scale (xyz 1 1 1))\n      (rotate (xyz 0 0 0))\n    )\n  )\n\n  (module Resistor_SMD:R_0603_1608Metric (layer B.Cu) (tedit 5B301BBD) (tstamp 5D6F8747)\n    (at 191 127 270)\n    (descr "Resistor SMD 0603 (1608 Metric), square (rectangular) end terminal, IPC_7351 nominal, (Body size source: http://www.tortai-tech.com/upload/download/2011102023233369053.pdf), generated with kicad-footprint-generator")\n    (tags resistor)\n    (path /pwr/fb/top_res)\n    (attr smd)\n    (fp_text reference pwr.fb.top_res (at 0 -1 270) (layer B.SilkS)\n      (effects (font (size 0.5 0.5) (thickness 0.08)) (justify mirror))\n    )\n    (fp_text value "33000, 1%, 0.1W (R=(32670.0, 33330.0) Ohm, P=(0.0, 0.0) W)" (at 0 -1.43 270) (layer B.Fab)\n      (effects (font (size 0.5 0.5) (thickness 0.08)) (justify mirror))\n    )\n    (fp_text user %R (at 0 0 270) (layer B.Fab)\n      (effects (font (size 0.5 0.5) (thickness 0.08)) (justify mirror))\n    )\n    (fp_line (start 1.48 -0.73) (end -1.48 -0.73) (layer B.CrtYd) (width 0.05))\n    (fp_line (start 1.48 0.73) (end 1.48 -0.73) (layer B.CrtYd) (width 0.05))\n    (fp_line (start -1.48 0.73) (end 1.48 0.73) (layer B.CrtYd) (width 0.05))\n    (fp_line (start -1.48 -0.73) (end -1.48 0.73) (layer B.CrtYd) (width 0.05))\n    (fp_line (start -0.162779 -0.51) (end 0.162779 -0.51) (layer B.SilkS) (width 0.12))\n    (fp_line (start -0.162779 0.51) (end 0.162779 0.51) (layer B.SilkS) (width 0.12))\n    (fp_line (start 0.8 -0.4) (end -0.8 -0.4) (layer B.Fab) (width 0.1))\n    (fp_line (start 0.8 0.4) (end 0.8 -0.4) (layer B.Fab) (width 0.1))\n    (fp_line (start -0.8 0.4) (end 0.8 0.4) (layer B.Fab) (width 0.1))\n    (fp_line (start -0.8 -0.4) (end -0.8 0.4) (layer B.Fab) (width 0.1))\n    (pad 2 smd roundrect (at 0.7875 0 270) (size 0.875 0.95) (layers B.Cu B.Paste B.Mask) (roundrect_rratio 0.25)\n      (net 5 pwr.ic.4))\n    (pad 1 smd roundrect (at -0.7875 0 270) (size 0.875 0.95) (layers B.Cu B.Paste B.Mask) (roundrect_rratio 0.25)\n      (net 2 v3v3))\n    (model ${KISYS3DMOD}/Resistor_SMD.3dshapes/R_0603_1608Metric.wrl\n      (at (xyz 0 0 0))\n      (scale (xyz 1 1 1))\n      (rotate (xyz 0 0 0))\n    )\n  )\n\n  (module Capacitor_SMD:C_1206_3216Metric (layer B.Cu) (tedit 5B301BBE) (tstamp 5D6F6495)\n    (at 200 124 180)\n    (descr "Capacitor SMD 1206 (3216 Metric), square (rectangular) end terminal, IPC_7351 nominal, (Body size source: http://www.tortai-tech.com/upload/download/2011102023233369053.pdf), generated with kicad-footprint-generator")\n    (tags capacitor)\n    (path /pwr/out_cap)\n    (attr smd)\n    (fp_text reference pwr.out_cap (at 0 1.82 180) (layer B.SilkS)\n      (effects (font (size 0.5 0.5) (thickness 0.08)) (justify mirror))\n    )\n    (fp_text value "22\xc2\xb5F, 6.3V, CL31A226MQHNNNE (C=(1.0344827586206895e-05, inf) F, V=(3.135, 3.465) V)" (at 0 -1.82 180) (layer B.Fab)\n      (effects (font (size 0.5 0.5) (thickness 0.08)) (justify mirror))\n    )\n    (fp_line (start -1.6 -0.8) (end -1.6 0.8) (layer B.Fab) (width 0.1))\n    (fp_line (start -1.6 0.8) (end 1.6 0.8) (layer B.Fab) (width 0.1))\n    (fp_line (start 1.6 0.8) (end 1.6 -0.8) (layer B.Fab) (width 0.1))\n    (fp_line (start 1.6 -0.8) (end -1.6 -0.8) (layer B.Fab) (width 0.1))\n    (fp_line (start -0.602064 0.91) (end 0.602064 0.91) (layer B.SilkS) (width 0.12))\n    (fp_line (start -0.602064 -0.91) (end 0.602064 -0.91) (layer B.SilkS) (width 0.12))\n    (fp_line (start -2.28 -1.12) (end -2.28 1.12) (layer B.CrtYd) (width 0.05))\n    (fp_line (start -2.28 1.12) (end 2.28 1.12) (layer B.CrtYd) (width 0.05))\n    (fp_line (start 2.28 1.12) (end 2.28 -1.12) (layer B.CrtYd) (width 0.05))\n    (fp_line (start 2.28 -1.12) (end -2.28 -1.12) (layer B.CrtYd) (width 0.05))\n    (fp_text user %R (at 0 0 180) (layer B.Fab)\n      (effects (font (size 0.5 0.5) (thickness 0.08)) (justify mirror))\n    )\n    (pad 1 smd roundrect (at -1.4 0 180) (size 1.25 1.75) (layers B.Cu B.Paste B.Mask) (roundrect_rratio 0.2)\n      (net 2 v3v3))\n    (pad 2 smd roundrect (at 1.4 0 180) (size 1.25 1.75) (layers B.Cu B.Paste B.Mask) (roundrect_rratio 0.2)\n      (net 3 gnd))\n    (model ${KISYS3DMOD}/Capacitor_SMD.3dshapes/C_1206_3216Metric.wrl\n      (at (xyz 0 0 0))\n      (scale (xyz 1 1 1))\n      (rotate (xyz 0 0 0))\n    )\n  )\n\n  (module Capacitor_SMD:C_1206_3216Metric (layer B.Cu) (tedit 5B301BBE) (tstamp 5D70B24F)\n    (at 200 130)\n    (descr "Capacitor SMD 1206 (3216 Metric), square (rectangular) end terminal, IPC_7351 nominal, (Body size source: http://www.tortai-tech.com/upload/download/2011102023233369053.pdf), generated with kicad-footprint-generator")\n    (tags capacitor)\n    (path /pwr/in_cap)\n    (attr smd)\n    (fp_text reference pwr.in_cap (at 0 1.82) (layer B.SilkS)\n      (effects (font (size 0.5 0.5) (thickness 0.08)) (justify mirror))\n    )\n    (fp_text value "22\xc2\xb5F, 16V, CL31A226MOCLNNC (C=(7.498403575989784e-06, inf) F, V=(10.8, 13.200000000000001) V)" (at 0 -1.82) (layer B.Fab)\n      (effects (font (size 0.5 0.5) (thickness 0.08)) (justify mirror))\n    )\n    (fp_line (start -1.6 -0.8) (end -1.6 0.8) (layer B.Fab) (width 0.1))\n    (fp_line (start -1.6 0.8) (end 1.6 0.8) (layer B.Fab) (width 0.1))\n    (fp_line (start 1.6 0.8) (end 1.6 -0.8) (layer B.Fab) (width 0.1))\n    (fp_line (start 1.6 -0.8) (end -1.6 -0.8) (layer B.Fab) (width 0.1))\n    (fp_line (start -0.602064 0.91) (end 0.602064 0.91) (layer B.SilkS) (width 0.12))\n    (fp_line (start -0.602064 -0.91) (end 0.602064 -0.91) (layer B.SilkS) (width 0.12))\n    (fp_line (start -2.28 -1.12) (end -2.28 1.12) (layer B.CrtYd) (width 0.05))\n    (fp_line (start -2.28 1.12) (end 2.28 1.12) (layer B.CrtYd) (width 0.05))\n    (fp_line (start 2.28 1.12) (end 2.28 -1.12) (layer B.CrtYd) (width 0.05))\n    (fp_line (start 2.28 -1.12) (end -2.28 -1.12) (layer B.CrtYd) (width 0.05))\n    (fp_text user %R (at 0 0) (layer B.Fab)\n      (effects (font (size 0.5 0.5) (thickness 0.08)) (justify mirror))\n    )\n    (pad 1 smd roundrect (at -1.4 0) (size 1.25 1.75) (layers B.Cu B.Paste B.Mask) (roundrect_rratio 0.2)\n      (net 4 vin))\n    (pad 2 smd roundrect (at 1.4 0) (size 1.25 1.75) (layers B.Cu B.Paste B.Mask) (roundrect_rratio 0.2)\n      (net 3 gnd))\n    (model ${KISYS3DMOD}/Capacitor_SMD.3dshapes/C_1206_3216Metric.wrl\n      (at (xyz 0 0 0))\n      (scale (xyz 1 1 1))\n      (rotate (xyz 0 0 0))\n    )\n  )\n\n  (segment (start 195.7875 124.7125) (end 195.7875 124) (width 0.25) (layer B.Cu) (net 1) (tstamp 5D6F8639) (status 20))\n  (segment (start 195 125.5) (end 195.7875 124.7125) (width 0.25) (layer B.Cu) (net 1) (tstamp 5D6F8633))\n  (segment (start 195 126.5) (end 195 125.5) (width 0.25) (layer B.Cu) (net 1) (tstamp 5D6F862A))\n  (segment (start 196.1 127) (end 195.5 127) (width 0.25) (layer B.Cu) (net 1) (tstamp 5D6F862D) (status 10))\n  (segment (start 195.5 127) (end 195 126.5) (width 0.25) (layer B.Cu) (net 1) (tstamp 5D6F8627))\n  (via (at 198 128) (size 1.2) (drill 0.8) (layers F.Cu B.Cu) (net 1))\n  (segment (start 198 128) (end 198 129) (width 0.5) (layer F.Cu) (net 1))\n  (segment (start 199.65 129) (end 200 129.35) (width 0.5) (layer F.Cu) (net 1))\n  (segment (start 198 129) (end 199.65 129) (width 0.5) (layer F.Cu) (net 1))\n  (segment (start 200 128) (end 200 129.35) (width 0.5) (layer F.Cu) (net 1))\n  (via (at 200 128) (size 1.2) (drill 0.8) (layers F.Cu B.Cu) (net 1))\n  (segment (start 197 127) (end 198 128) (width 0.5) (layer B.Cu) (net 1))\n  (segment (start 196.1 127) (end 197 127) (width 0.5) (layer B.Cu) (net 1))\n  (segment (start 198 128) (end 200 128) (width 0.5) (layer B.Cu) (net 1))\n  (segment (start 199 123) (end 192 123) (width 0.25) (layer F.Cu) (net 2) (tstamp 5D6F85F4))\n  (via (at 191 125) (size 0.8) (drill 0.4) (layers F.Cu B.Cu) (net 2) (tstamp 5D6F86E1))\n  (segment (start 191 125) (end 191 126.2125) (width 0.25) (layer B.Cu) (net 2) (tstamp 5D6F8705) (status 20))\n  (via (at 200 126) (size 1.2) (drill 0.8) (layers F.Cu B.Cu) (net 2))\n  (segment (start 200 124.65) (end 200 126) (width 0.5) (layer F.Cu) (net 2))\n  (via (at 202 126) (size 1.2) (drill 0.8) (layers F.Cu B.Cu) (net 2))\n  (segment (start 200 126) (end 202 126) (width 0.5) (layer B.Cu) (net 2))\n  (segment (start 201.4 124) (end 201.4 126) (width 0.5) (layer B.Cu) (net 2))\n  (segment (start 200 123.5) (end 200 124.65) (width 0.5) (layer F.Cu) (net 2))\n  (segment (start 191 125) (end 191 123) (width 0.25) (layer F.Cu) (net 2))\n  (segment (start 195.45 127.95) (end 196.1 127.95) (width 0.25) (layer B.Cu) (net 4) (tstamp 5D6F8660) (status 20))\n  (segment (start 193.9 127) (end 194.5 127) (width 0.25) (layer B.Cu) (net 4) (tstamp 5D6F864E) (status 10))\n  (segment (start 194.5 127) (end 195.45 127.95) (width 0.25) (layer B.Cu) (net 4) (tstamp 5D6F864B))\n  (segment (start 196.1 127.95) (end 196.1 128.9) (width 0.5) (layer B.Cu) (net 4))\n  (segment (start 195.7875 129.2125) (end 195.7875 130) (width 0.5) (layer B.Cu) (net 4))\n  (segment (start 196.1 128.9) (end 195.7875 129.2125) (width 0.5) (layer B.Cu) (net 4))\n  (segment (start 198 130) (end 196.9 128.9) (width 0.5) (layer B.Cu) (net 4))\n  (segment (start 196.9 128.9) (end 196.1 128.9) (width 0.5) (layer B.Cu) (net 4))\n  (segment (start 199.0625 130) (end 198 130) (width 0.5) (layer B.Cu) (net 4))\n  (segment (start 191 127.7875) (end 192.7875 127.7875) (width 0.25) (layer B.Cu) (net 5) (tstamp 5D6F85D9) (status 10))\n  (segment (start 192.95 127.95) (end 193.9 127.95) (width 0.25) (layer B.Cu) (net 5) (tstamp 5D6F85DF) (status 20))\n  (segment (start 192.7875 127.7875) (end 192.95 127.95) (width 0.25) (layer B.Cu) (net 5) (tstamp 5D6F85D0))\n  (segment (start 189 127.7875) (end 191 127.7875) (width 0.25) (layer B.Cu) (net 5) (tstamp 5D6F863C) (status 30))\n  (segment (start 193.9 126.05) (end 193.9 125.1) (width 0.25) (layer B.Cu) (net 6) (tstamp 5D6F8678) (status 10))\n  (segment (start 194.2125 124.7875) (end 194.2125 124) (width 0.25) (layer B.Cu) (net 6) (tstamp 5D6F8675) (status 20))\n  (segment (start 193.9 125.1) (end 194.2125 124.7875) (width 0.25) (layer B.Cu) (net 6) (tstamp 5D6F866C))\n\n)\n'
p3
S'8151aa530dfd43350b82b99459dcd51b'
p4
(dp5
S'vsense'
p6
(lp7
S'vsense'
p8
aVelectronics_abstract_parts_ResistiveDivider_VoltageDivider_-7B2AFEE3.sch
p9
asS'rgb1'
p10
(lp11
S'rgb1'
p12
aVelectronics_lib_Leds_IndicatorSinkRgbLed_-AAC81B5.sch
p13
asS'light_4'
p14
(lp15
S'light_4'
p16
aVelectronics_lib_CalSolBlocks_CalSolLightsDriver_-75A5DEAE.sch
p17
asS'light_5'
p18
(lp19
S'light_5'
p20
aVelectronics_lib_CalSolBlocks_CalSolLightsDriver_-75A5DEAE.sch
p21
asS'pwr'
p22
(lp23
S'pwr'
p24
aVelectronics_abstract_parts_AbstractPowerConverters_DiscreteBuckConverter_52817A5C.sch
p25
asS'drv_1'
p26
(lp27
S'drv_1'
p28
aVelectronics_abstract_parts_DigitalAmplifiers_HighSideSwitch_-41C22D73.sch
p29
asS'light_0'
p30
(lp31
S'light_0'
p32
aVelectronics_lib_CalSolBlocks_CalSolLightsDriver_-75A5DEAE.sch
p33
asS'crystal'
p34
(lp35
S'crystal'
p36
aVelectronics_lib_Crystals_Crystal_-709F42A8.sch
p37
asS'light_1'
p38
(lp39
S'light_1'
p40
aVelectronics_lib_CalSolBlocks_CalSolLightsDriver_-75A5DEAE.sch
p41
asS'transceiver'
p42
(lp43
S'transceiver'
p44
aVelectronics_lib_Iso1050_Iso1050dub_660B13D7.sch
p45
asS'fb'
p46
(lp47
S'fb'
p48
aVelectronics_abstract_parts_ResistiveDivider_VoltageDivider_-7B2AFEE3.sch
p49
asS'light_2'
p50
(lp51
S'light_2'
p52
aVelectronics_lib_CalSolBlocks_CalSolLightsDriver_-75A5DEAE.sch
p53
asS'can'
p54
(lp55
S'can'
p56
aVelectronics_lib_CalSolBlocks_CalSolCanBlock_6A439F28.sch
p57
asS'drv_0'
p58
(lp59
S'drv_0'
p60
aVelectronics_abstract_parts_DigitalAmplifiers_HighSideSwitch_-41C22D73.sch
p61
asS'mcu'
p62
(lp63
S'mcu'
p64
aVelectronics_lib_Lpc1549_Lpc1549_61320EAA.sch
p65
asS'rgb2'
p66
(lp67
S'rgb2'
p68
aVelectronics_lib_Leds_IndicatorSinkRgbLed_-AAC81B5.sch
p69
asS'reg'
p70
(lp71
S'reg'
p72
aVelectronics_lib_LinearRegulators_Ap2204k_5_0_-4146742D.sch
p73
asS'light_3'
p74
(lp75
S'light_3'
p76
aVelectronics_lib_CalSolBlocks_CalSolLightsDriver_-75A5DEAE.sch
p77
as(lp78
Vpwr.sw
p79
aVpwr.ic.4
p80
aVpwr.vbst_cap.pos
p81
a(lp82
g24
a(lp83
g25
atp84
tp85
Rp86
.